(i__main__
Ommahard
p1
(dp2
S'lats'
p3
(lp4
(lp5
(iomma_geom
subFace
p6
(dp7
S'V'
F0
sS'en'
p8
(lp9
I20
aI22
aI23
asS'dcU'
p10
F0.16
sS'i'
I21
sS'c'
(F0
F0
F0
tp11
sS'rc'
p12
ccopy_reg
_reconstructor
p13
(comma_geom
RDConstants
p14
c__builtin__
object
p15
NtRp16
(dp17
S'diffusion_rate_V'
p18
F0.01
sS'diffusion_rate_U'
p19
F0.040000000000000001
sS'F'
F0.040000000000000001
sS'k'
F0.059999999999999998
sS'reaction_rate'
p20
F0.40000000000000002
sS'del_X2'
p21
F1
sS'del_T'
p22
I4
sbsS'rcUV'
p23
F1.6000000000000001
sS'dcV'
p24
F0.040000000000000001
sS'n'
(lp25
(iomma_geom
subFace
p26
(dp27
S'V'
F0
sg8
(lp28
I3
aI21
aI63
asg10
F0.16
sS'i'
I20
sS'c'
(F0
F0.055272063701741446
F0.11054412345471176
tp29
sg12
g13
(g14
g15
NtRp30
(dp31
g18
F0.01
sg19
F0.040000000000000001
sS'F'
F0.040000000000000001
sS'k'
F0.059999999999999998
sg20
F0.40000000000000002
sg21
F1
sg22
I4
sbsg23
F1.6000000000000001
sg24
F0.040000000000000001
sS'n'
(lp32
(iomma_geom
subFace
p33
(dp34
S'V'
F0
sg8
(lp35
I1
aI6
aI20
asg10
F0.16
sS'i'
I3
sS'c'
(F0
F0.1954160396115949
F0.19711718603322087
tp36
sg12
g13
(g14
g15
NtRp37
(dp38
g18
F0.01
sg19
F0.040000000000000001
sS'F'
F0.040000000000000001
sS'k'
F0.059999999999999998
sg20
F0.40000000000000002
sg21
F1
sg22
I4
sbsg23
F1.6000000000000001
sg24
F0.040000000000000001
sS'n'
(lp39
(iomma_geom
subFace
p40
(dp41
S'V'
F0
sg8
(lp42
I0
aI2
aI3
asg10
F0.16
sS'i'
I1
sS'c'
(F0
F0.232279528442907
F0.11613976254258751
tp43
sg12
g13
(g14
g15
NtRp44
(dp45
g18
F0.01
sg19
F0.040000000000000001
sS'F'
F0.040000000000000001
sS'k'
F0.059999999999999998
sg20
F0.40000000000000002
sg21
F1
sg22
I4
sbsg23
F1.6000000000000001
sg24
F0.040000000000000001
sS'n'
(lp46
(iomma_geom
subFace
p47
(dp48
S'V'
F0
sg8
(lp49
I1
aI4
aI16
asg10
F0.16
sS'i'
I0
sS'c'
(F0
F0.34282365314175572
F0.17141182537795649
tp50
sg12
g13
(g14
g15
NtRp51
(dp52
g18
F0.01
sg19
F0.040000000000000001
sS'F'
F0.040000000000000001
sS'k'
F0.059999999999999998
sg20
F0.40000000000000002
sg21
F1
sg22
I4
sbsg23
F1.6000000000000001
sg24
F0.040000000000000001
sS'n'
(lp53
g40
a(iomma_geom
subFace
p54
(dp55
S'V'
F0
sg8
(lp56
I0
aI5
aI8
asg10
F0.16
sS'i'
I4
sS'c'
(F0
F0.41294325545050947
F0.32525400152107925
tp57
sg12
g13
(g14
g15
NtRp58
(dp59
g18
F0.01
sg19
F0.040000000000000001
sS'F'
F0.040000000000000001
sS'k'
F0.059999999999999998
sg20
F0.40000000000000002
sg21
F1
sg22
I4
sbsg23
F1.6000000000000001
sg24
F0.040000000000000001
sS'n'
(lp60
g47
a(iomma_geom
subFace
p61
(dp62
S'V'
F0
sg8
(lp63
I4
aI6
aI7
asg10
F0.16
sS'i'
I5
sS'c'
(F0
F0.34114219543664998
F0.39182655169457742
tp64
sg12
g13
(g14
g15
NtRp65
(dp66
g18
F0.01
sg19
F0.040000000000000001
sS'F'
F0.040000000000000001
sS'k'
F0.059999999999999998
sg20
F0.40000000000000002
sg21
F1
sg22
I4
sbsg23
F1.6000000000000001
sg24
F0.040000000000000001
sS'n'
(lp67
g54
a(iomma_geom
subFace
p68
(dp69
S'V'
F0
sg8
(lp70
I3
aI5
aI26
asg10
F0.16
sS'i'
I6
sS'c'
(F0
F0.20795806604084829
F0.29099033902874905
tp71
sg12
g13
(g14
g15
NtRp72
(dp73
g18
F0.01
sg19
F0.040000000000000001
sS'F'
F0.040000000000000001
sS'k'
F0.059999999999999998
sg20
F0.40000000000000002
sg21
F1
sg22
I4
sbsg23
F1.6000000000000001
sg24
F0.040000000000000001
sS'n'
(lp74
g33
ag61
a(iomma_geom
subFace
p75
(dp76
S'V'
F0
sg8
(lp77
I6
aI25
aI63
asg10
F0.16
sS'i'
I26
sS'c'
(F0
F0.083032275540503159
F0.29099033806809421
tp78
sg12
g13
(g14
g15
NtRp79
(dp80
g18
F0.01
sg19
F0.040000000000000001
sS'F'
F0.040000000000000001
sS'k'
F0.059999999999999998
sg20
F0.40000000000000002
sg21
F1
sg22
I4
sbsg23
F1.6000000000000001
sg24
F0.040000000000000001
sS'n'
(lp81
g68
a(iomma_geom
subFace
p82
(dp83
S'V'
F0
sg8
(lp84
I24
aI26
aI27
asg10
F0.16
sS'i'
I25
sS'c'
(F0
F0.050684357704838236
F0.39182655006345402
tp85
sg12
g13
(g14
g15
NtRp86
(dp87
g18
F0.01
sg19
F0.040000000000000001
sS'F'
F0.040000000000000001
sS'k'
F0.059999999999999998
sg20
F0.40000000000000002
sg21
F1
sg22
I4
sbsg23
F1.6000000000000001
sg24
F0.040000000000000001
sS'n'
(lp88
(iomma_geom
subFace
p89
(dp90
S'V'
F0
sg8
(lp91
I7
aI79
aI25
asg10
F0.16
sS'i'
I24
sS'c'
(F0
F0.15882195729459234
F0.48096815532194642
tp92
sg12
g13
(g14
g15
NtRp93
(dp94
g18
F0.01
sg19
F0.040000000000000001
sS'F'
F0.040000000000000001
sS'k'
F0.059999999999999998
sg20
F0.40000000000000002
sg21
F1
sg22
I4
sbsg23
F1.6000000000000001
sg24
F0.040000000000000001
sS'n'
(lp95
(iomma_geom
subFace
p96
(dp97
S'V'
F0
sg8
(lp98
I5
aI10
aI24
asg10
F0.16
sS'i'
I7
sS'c'
(F0
F0.32214619890429352
F0.4809681560842029
tp99
sg12
g13
(g14
g15
NtRp100
(dp101
g18
F0.01
sg19
F0.040000000000000001
sS'F'
F0.040000000000000001
sS'k'
F0.059999999999999998
sg20
F0.40000000000000002
sg21
F1
sg22
I4
sbsg23
F1.6000000000000001
sg24
F0.040000000000000001
sS'n'
(lp102
g61
a(iomma_geom
subFace
p103
(dp104
S'V'
F0
sg8
(lp105
I7
aI9
aI30
asg10
F0.16
sS'i'
I10
sS'c'
(F0
F0.4623941734472618
F0.58705674454949053
tp106
sg12
g13
(g14
g15
NtRp107
(dp108
g18
F0.01
sg19
F0.040000000000000001
sS'F'
F0.040000000000000001
sS'k'
F0.059999999999999998
sg20
F0.40000000000000002
sg21
F1
sg22
I4
sbsg23
F1.6000000000000001
sg24
F0.040000000000000001
sS'n'
(lp109
g96
a(iomma_geom
subFace
p110
(dp111
S'V'
F0
sg8
(lp112
I8
aI10
aI11
asg10
F0.16
sS'i'
I9
sS'c'
(F0
F0.60817344830542264
F0.52950374206113582
tp113
sg12
g13
(g14
g15
NtRp114
(dp115
g18
F0.01
sg19
F0.040000000000000001
sS'F'
F0.040000000000000001
sS'k'
F0.059999999999999998
sg20
F0.40000000000000002
sg21
F1
sg22
I4
sbsg23
F1.6000000000000001
sg24
F0.040000000000000001
sS'n'
(lp116
(iomma_geom
subFace
p117
(dp118
S'V'
F0
sg8
(lp119
I4
aI9
aI12
asg10
F0.16
sS'i'
I8
sS'c'
(F0
F0.51903184391579715
F0.34764076064630017
tp120
sg12
g13
(g14
g15
NtRp121
(dp122
g18
F0.01
sg19
F0.040000000000000001
sS'F'
F0.040000000000000001
sS'k'
F0.059999999999999998
sg20
F0.40000000000000002
sg21
F1
sg22
I4
sbsg23
F1.6000000000000001
sg24
F0.040000000000000001
sS'n'
(lp123
g54
ag110
a(iomma_geom
subFace
p124
(dp125
S'V'
F0
sg8
(lp126
I8
aI13
aI16
asg10
F0.16
sS'i'
I12
sS'c'
(F0
F0.51903184467805363
F0.17139108391659022
tp127
sg12
g13
(g14
g15
NtRp128
(dp129
g18
F0.01
sg19
F0.040000000000000001
sS'F'
F0.040000000000000001
sS'k'
F0.059999999999999998
sg20
F0.40000000000000002
sg21
F1
sg22
I4
sbsg23
F1.6000000000000001
sg24
F0.040000000000000001
sS'n'
(lp130
g117
a(iomma_geom
subFace
p131
(dp132
S'V'
F0
sg8
(lp133
I12
aI14
aI15
asg10
F0.16
sS'i'
I13
sS'c'
(F0
F0.60817344993654598
F0.078669709028593451
tp134
sg12
g13
(g14
g15
NtRp135
(dp136
g18
F0.01
sg19
F0.040000000000000001
sS'F'
F0.040000000000000001
sS'k'
F0.059999999999999998
sg20
F0.40000000000000002
sg21
F1
sg22
I4
sbsg23
F1.6000000000000001
sg24
F0.040000000000000001
sS'n'
(lp137
g124
a(iomma_geom
subFace
p138
(dp139
S'V'
F0
sg8
(lp140
I38
aI11
aI13
asg10
F0.16
sS'i'
I14
sS'c'
(F0
F0.70900966193190573
F0.20231147879773503
tp141
sg12
g13
(g14
g15
NtRp142
(dp143
g18
F0.01
sg19
F0.040000000000000001
sS'F'
F0.040000000000000001
sS'k'
F0.059999999999999998
sg20
F0.40000000000000002
sg21
F1
sg22
I4
sbsg23
F1.6000000000000001
sg24
F0.040000000000000001
sS'n'
(lp144
(iomma_geom
subFace
p145
(dp146
S'V'
F0
sg8
(lp147
I75
aI37
aI14
asg10
F0.16
sS'i'
I38
sS'c'
(F0
F0.8028828160878686
F0.0069289936410488855
tp148
sg12
g13
(g14
g15
NtRp149
(dp150
g18
F0.01
sg19
F0.040000000000000001
sS'F'
F0.040000000000000001
sS'k'
F0.059999999999999998
sg20
F0.40000000000000002
sg21
F1
sg22
I4
sbsg23
F1.6000000000000001
sg24
F0.040000000000000001
sS'n'
(lp151
(iomma_geom
subFace
p152
(dp153
S'V'
F0
sg8
(lp154
I38
aI73
aI28
asg10
F0.16
sS'i'
I75
sS'c'
(F0
F0.88945587654528835
F0.4447279541588694
tp155
sg12
g13
(g14
g15
NtRp156
(dp157
g18
F0.01
sg19
F0.040000000000000001
sS'F'
F0.040000000000000001
sS'k'
F0.059999999999999998
sg20
F0.40000000000000002
sg21
F1
sg22
I4
sbsg23
F1.6000000000000001
sg24
F0.040000000000000001
sS'n'
(lp158
g145
a(iomma_geom
subFace
p159
(dp160
S'V'
F0
sg8
(lp161
I72
aI74
aI75
asg10
F0.16
sS'i'
I73
sS'c'
(F0.49999999762840652
F0
F0.99999999525681305
tp162
sg12
g13
(g14
g15
NtRp163
(dp164
g18
F0.01
sg19
F0.040000000000000001
sS'F'
F0.040000000000000001
sS'k'
F0.059999999999999998
sg20
F0.40000000000000002
sg21
F1
sg22
I4
sbsg23
F1.6000000000000001
sg24
F0.040000000000000001
sS'n'
(lp165
(iomma_geom
subFace
p166
(dp167
S'V'
F0
sg8
(lp168
I73
aI55
aI31
asg10
F0.16
sS'i'
I72
sS'c'
(F0.44472793640643871
F0
F0.88945587281287741
tp169
sg12
g13
(g14
g15
NtRp170
(dp171
g18
F0.01
sg19
F0.040000000000000001
sS'F'
F0.040000000000000001
sS'k'
F0.059999999999999998
sg20
F0.40000000000000002
sg21
F1
sg22
I4
sbsg23
F1.6000000000000001
sg24
F0.040000000000000001
sS'n'
(lp172
g159
a(iomma_geom
subFace
p173
(dp174
S'V'
F0
sg8
(lp175
I72
aI53
aI58
asg10
F0.16
sS'i'
I55
sS'c'
(F0.79595381830598699
F0
F0.80288281177822773
tp176
sg12
g13
(g14
g15
NtRp177
(dp178
g18
F0.01
sg19
F0.040000000000000001
sS'F'
F0.040000000000000001
sS'k'
F0.059999999999999998
sg20
F0.40000000000000002
sg21
F1
sg22
I4
sbsg23
F1.6000000000000001
sg24
F0.040000000000000001
sS'n'
(lp179
g166
a(iomma_geom
subFace
p180
(dp181
S'V'
F0
sg8
(lp182
I52
aI54
aI55
asg10
F0.16
sS'i'
I53
sS'c'
(F0.76772047155709311
F0
F0.38386024132746271
tp183
sg12
g13
(g14
g15
NtRp184
(dp185
g18
F0.01
sg19
F0.040000000000000001
sS'F'
F0.040000000000000001
sS'k'
F0.059999999999999998
sg20
F0.40000000000000002
sg21
F1
sg22
I4
sbsg23
F1.6000000000000001
sg24
F0.040000000000000001
sS'n'
(lp186
(iomma_geom
subFace
p187
(dp188
S'V'
F0
sg8
(lp189
I48
aI53
aI56
asg10
F0.16
sS'i'
I52
sS'c'
(F0.65717634685824433
F0
F0.32858817571589466
tp190
sg12
g13
(g14
g15
NtRp191
(dp192
g18
F0.01
sg19
F0.040000000000000001
sS'F'
F0.040000000000000001
sS'k'
F0.059999999999999998
sg20
F0.40000000000000002
sg21
F1
sg22
I4
sbsg23
F1.6000000000000001
sg24
F0.040000000000000001
sS'n'
(lp193
(iomma_geom
subFace
p194
(dp195
S'V'
F0
sg8
(lp196
I44
aI49
aI52
asg10
F0.16
sS'i'
I48
sS'c'
(F0.58705674454949053
F0
F0.12466257110222871
tp197
sg12
g13
(g14
g15
NtRp198
(dp199
g18
F0.01
sg19
F0.040000000000000001
sS'F'
F0.040000000000000001
sS'k'
F0.059999999999999998
sg20
F0.40000000000000002
sg21
F1
sg22
I4
sbsg23
F1.6000000000000001
sg24
F0.040000000000000001
sS'n'
(lp200
(iomma_geom
subFace
p201
(dp202
S'V'
F0
sg8
(lp203
I40
aI45
aI48
asg10
F0.16
sS'i'
I44
sS'c'
(F0.4809681560842029
F0
F0.15882195717990918
tp204
sg12
g13
(g14
g15
NtRp205
(dp206
g18
F0.01
sg19
F0.040000000000000001
sS'F'
F0.040000000000000001
sS'k'
F0.059999999999999998
sg20
F0.40000000000000002
sg21
F1
sg22
I4
sbsg23
F1.6000000000000001
sg24
F0.040000000000000001
sS'n'
(lp207
(iomma_geom
subFace
p208
(dp209
S'V'
F0
sg8
(lp210
I41
aI44
aI56
asg10
F0.16
sS'i'
I40
sS'c'
(F0.48096815532194642
F0
F0.32214619802735367
tp211
sg12
g13
(g14
g15
NtRp212
(dp213
g18
F0.01
sg19
F0.040000000000000001
sS'F'
F0.040000000000000001
sS'k'
F0.059999999999999998
sg20
F0.40000000000000002
sg21
F1
sg22
I4
sbsg23
F1.6000000000000001
sg24
F0.040000000000000001
sS'n'
(lp214
(iomma_geom
subFace
p215
(dp216
S'V'
F0
sg8
(lp217
I40
aI42
aI43
asg10
F0.16
sS'i'
I41
sS'c'
(F0.39182655006345402
F0
F0.34114219235861576
tp218
sg12
g13
(g14
g15
NtRp219
(dp220
g18
F0.01
sg19
F0.040000000000000001
sS'F'
F0.040000000000000001
sS'k'
F0.059999999999999998
sg20
F0.40000000000000002
sg21
F1
sg22
I4
sbsg23
F1.6000000000000001
sg24
F0.040000000000000001
sS'n'
(lp221
g208
a(iomma_geom
subFace
p222
(dp223
S'V'
F0
sg8
(lp224
I41
aI59
aI62
asg10
F0.16
sS'i'
I42
sS'c'
(F0.32525400031719776
F0
F0.41294325252549369
tp225
sg12
g13
(g14
g15
NtRp226
(dp227
g18
F0.01
sg19
F0.040000000000000001
sS'F'
F0.040000000000000001
sS'k'
F0.059999999999999998
sg20
F0.40000000000000002
sg21
F1
sg22
I4
sbsg23
F1.6000000000000001
sg24
F0.040000000000000001
sS'n'
(lp228
g215
a(iomma_geom
subFace
p229
(dp230
S'V'
F0
sg8
(lp231
I42
aI76
aI57
asg10
F0.16
sS'i'
I59
sS'c'
(F0.34764075818184115
F0
F0.51903184062335561
tp232
sg12
g13
(g14
g15
NtRp233
(dp234
g18
F0.01
sg19
F0.040000000000000001
sS'F'
F0.040000000000000001
sS'k'
F0.059999999999999998
sg20
F0.40000000000000002
sg21
F1
sg22
I4
sbsg23
F1.6000000000000001
sg24
F0.040000000000000001
sS'n'
(lp235
g222
a(iomma_geom
subFace
p236
(dp237
S'V'
F0
sg8
(lp238
I27
aI77
aI59
asg10
F0.16
sS'i'
I76
sS'c'
(F0.17139108244151444
F0
F0.51903184062335561
tp239
sg12
g13
(g14
g15
NtRp240
(dp241
g18
F0.01
sg19
F0.040000000000000001
sS'F'
F0.040000000000000001
sS'k'
F0.059999999999999998
sg20
F0.40000000000000002
sg21
F1
sg22
I4
sbsg23
F1.6000000000000001
sg24
F0.040000000000000001
sS'n'
(lp242
(iomma_geom
subFace
p243
(dp244
S'V'
F0
sg8
(lp245
I76
aI25
aI62
asg10
F0.16
sS'i'
I27
sS'c'
(F0.087689252208295945
F0
F0.41294325252549369
tp246
sg12
g13
(g14
g15
NtRp247
(dp248
g18
F0.01
sg19
F0.040000000000000001
sS'F'
F0.040000000000000001
sS'k'
F0.059999999999999998
sg20
F0.40000000000000002
sg21
F1
sg22
I4
sbsg23
F1.6000000000000001
sg24
F0.040000000000000001
sS'n'
(lp249
g236
ag82
a(iomma_geom
subFace
p250
(dp251
S'V'
F0
sg8
(lp252
I42
aI27
aI61
asg10
F0.16
sS'i'
I62
sS'c'
(F0.17141182470467239
F0
F0.34282364940934479
tp253
sg12
g13
(g14
g15
NtRp254
(dp255
g18
F0.01
sg19
F0.040000000000000001
sS'F'
F0.040000000000000001
sS'k'
F0.059999999999999998
sg20
F0.40000000000000002
sg21
F1
sg22
I4
sbsg23
F1.6000000000000001
sg24
F0.040000000000000001
sS'n'
(lp256
g222
ag243
a(iomma_geom
subFace
p257
(dp258
S'V'
F0
sg8
(lp259
I60
aI62
aI63
asg10
F0.16
sS'i'
I61
sS'c'
(F0.11613976235524806
F0
F0.23227952471049612
tp260
sg12
g13
(g14
g15
NtRp261
(dp262
g18
F0.01
sg19
F0.040000000000000001
sS'F'
F0.040000000000000001
sS'k'
F0.059999999999999998
sg20
F0.40000000000000002
sg21
F1
sg22
I4
sbsg23
F1.6000000000000001
sg24
F0.040000000000000001
sS'n'
(lp263
(iomma_geom
subFace
p264
(dp265
S'V'
F0
sg8
(lp266
I43
aI23
aI61
asg10
F0.16
sS'i'
I60
sS'c'
(F0.19711718391213146
F0
F0.19541603439628569
tp267
sg12
g13
(g14
g15
NtRp268
(dp269
g18
F0.01
sg19
F0.040000000000000001
sS'F'
F0.040000000000000001
sS'k'
F0.059999999999999998
sg20
F0.40000000000000002
sg21
F1
sg22
I4
sbsg23
F1.6000000000000001
sg24
F0.040000000000000001
sS'n'
(lp270
(iomma_geom
subFace
p271
(dp272
S'V'
F0
sg8
(lp273
I41
aI46
aI60
asg10
F0.16
sS'i'
I43
sS'c'
(F0.29099033806809421
F0
F0.20795806252759105
tp274
sg12
g13
(g14
g15
NtRp275
(dp276
g18
F0.01
sg19
F0.040000000000000001
sS'F'
F0.040000000000000001
sS'k'
F0.059999999999999998
sg20
F0.40000000000000002
sg21
F1
sg22
I4
sbsg23
F1.6000000000000001
sg24
F0.040000000000000001
sS'n'
(lp277
g215
a(iomma_geom
subFace
p278
(dp279
S'V'
F0
sg8
(lp280
I66
aI43
aI45
asg10
F0.16
sS'i'
I46
sS'c'
(F0.29099033902874905
F0
F0.083032272987900765
tp281
sg12
g13
(g14
g15
NtRp282
(dp283
g18
F0.01
sg19
F0.040000000000000001
sS'F'
F0.040000000000000001
sS'k'
F0.059999999999999998
sg20
F0.40000000000000002
sg21
F1
sg22
I4
sbsg23
F1.6000000000000001
sg24
F0.040000000000000001
sS'n'
(lp284
(iomma_geom
subFace
p285
(dp286
S'V'
F0
sg8
(lp287
I65
aI46
aI23
asg10
F0.16
sS'i'
I66
sS'c'
(F0.19711718603322087
F0
F0.0017011464216258024
tp288
sg12
g13
(g14
g15
NtRp289
(dp290
g18
F0.01
sg19
F0.040000000000000001
sS'F'
F0.040000000000000001
sS'k'
F0.059999999999999998
sg20
F0.40000000000000002
sg21
F1
sg22
I4
sbsg23
F1.6000000000000001
sg24
F0.040000000000000001
sS'n'
(lp291
(iomma_geom
subFace
p292
(dp293
S'V'
F0
sg8
(lp294
I64
aI66
aI67
asg10
F0.16
sS'i'
I65
sS'c'
(F0.232279528442907
F0.11613976590031938
F0
tp295
sg12
g13
(g14
g15
NtRp296
(dp297
g18
F0.01
sg19
F0.040000000000000001
sS'F'
F0.040000000000000001
sS'k'
F0.059999999999999998
sg20
F0.40000000000000002
sg21
F1
sg22
I4
sbsg23
F1.6000000000000001
sg24
F0.040000000000000001
sS'n'
(lp298
(iomma_geom
subFace
p299
(dp300
S'V'
F0
sg8
(lp301
I65
aI35
aI47
asg10
F0.16
sS'i'
I64
sS'c'
(F0.34282365314175572
F0.17141182776379935
F0
tp302
sg12
g13
(g14
g15
NtRp303
(dp304
g18
F0.01
sg19
F0.040000000000000001
sS'F'
F0.040000000000000001
sS'k'
F0.059999999999999998
sg20
F0.40000000000000002
sg21
F1
sg22
I4
sbsg23
F1.6000000000000001
sg24
F0.040000000000000001
sS'n'
(lp305
g292
a(iomma_geom
subFace
p306
(dp307
S'V'
F0
sg8
(lp308
I64
aI33
aI70
asg10
F0.16
sS'i'
I35
sS'c'
(F0.41294325672918802
F0.32525400395855675
F0
tp309
sg12
g13
(g14
g15
NtRp310
(dp311
g18
F0.01
sg19
F0.040000000000000001
sS'F'
F0.040000000000000001
sS'k'
F0.059999999999999998
sg20
F0.40000000000000002
sg21
F1
sg22
I4
sbsg23
F1.6000000000000001
sg24
F0.040000000000000001
sS'n'
(lp312
g299
a(iomma_geom
subFace
p313
(dp314
S'V'
F0
sg8
(lp315
I32
aI34
aI35
asg10
F0.16
sS'i'
I33
sS'c'
(F0.3411421963184515
F0.39182655433379043
F0
tp316
sg12
g13
(g14
g15
NtRp317
(dp318
g18
F0.01
sg19
F0.040000000000000001
sS'F'
F0.040000000000000001
sS'k'
F0.059999999999999998
sg20
F0.40000000000000002
sg21
F1
sg22
I4
sbsg23
F1.6000000000000001
sg24
F0.040000000000000001
sS'n'
(lp319
(iomma_geom
subFace
p320
(dp321
S'V'
F0
sg8
(lp322
I33
aI67
aI19
asg10
F0.16
sS'i'
I32
sS'c'
(F0.20795806632476099
F0.2909903421869306
F0
tp323
sg12
g13
(g14
g15
NtRp324
(dp325
g18
F0.01
sg19
F0.040000000000000001
sS'F'
F0.040000000000000001
sS'k'
F0.059999999999999998
sg20
F0.40000000000000002
sg21
F1
sg22
I4
sbsg23
F1.6000000000000001
sg24
F0.040000000000000001
sS'n'
(lp326
g313
a(iomma_geom
subFace
p327
(dp328
S'V'
F0
sg8
(lp329
I32
aI65
aI22
asg10
F0.16
sS'i'
I67
sS'c'
(F0.19541603870104704
F0.19711718822177224
F0
tp330
sg12
g13
(g14
g15
NtRp331
(dp332
g18
F0.01
sg19
F0.040000000000000001
sS'F'
F0.040000000000000001
sS'k'
F0.059999999999999998
sg20
F0.40000000000000002
sg21
F1
sg22
I4
sbsg23
F1.6000000000000001
sg24
F0.040000000000000001
sS'n'
(lp333
g320
ag292
a(iomma_geom
subFace
p334
(dp335
S'V'
F0
sg8
(lp336
I2
aI67
aI21
asg10
F0.16
sS'i'
I22
sS'c'
(F0.055272063593561342
F0.11054412718712268
F0
tp337
sg12
g13
(g14
g15
NtRp338
(dp339
g18
F0.01
sg19
F0.040000000000000001
sS'F'
F0.040000000000000001
sS'k'
F0.059999999999999998
sg20
F0.40000000000000002
sg21
F1
sg22
I4
sbsg23
F1.6000000000000001
sg24
F0.040000000000000001
sS'n'
(lp340
(iomma_geom
subFace
p341
(dp342
S'V'
F0
sg8
(lp343
I1
aI19
aI22
asg10
F0.16
sS'i'
I2
sS'c'
(F0.0017011495207252102
F0.19711718822177224
F0
tp344
sg12
g13
(g14
g15
NtRp345
(dp346
g18
F0.01
sg19
F0.040000000000000001
sS'F'
F0.040000000000000001
sS'k'
F0.059999999999999998
sg20
F0.40000000000000002
sg21
F1
sg22
I4
sbsg23
F1.6000000000000001
sg24
F0.040000000000000001
sS'n'
(lp347
g40
a(iomma_geom
subFace
p348
(dp349
S'V'
F0
sg8
(lp350
I32
aI2
aI17
asg10
F0.16
sS'i'
I19
sS'c'
(F0.083032275862169658
F0.2909903421869306
F0
tp351
sg12
g13
(g14
g15
NtRp352
(dp353
g18
F0.01
sg19
F0.040000000000000001
sS'F'
F0.040000000000000001
sS'k'
F0.059999999999999998
sg20
F0.40000000000000002
sg21
F1
sg22
I4
sbsg23
F1.6000000000000001
sg24
F0.040000000000000001
sS'n'
(lp354
g320
ag341
a(iomma_geom
subFace
p355
(dp356
S'V'
F0
sg8
(lp357
I16
aI18
aI19
asg10
F0.16
sS'i'
I17
sS'c'
(F0.050684358015339
F0.39182655433379043
F0
tp358
sg12
g13
(g14
g15
NtRp359
(dp360
g18
F0.01
sg19
F0.040000000000000001
sS'F'
F0.040000000000000001
sS'k'
F0.059999999999999998
sg20
F0.40000000000000002
sg21
F1
sg22
I4
sbsg23
F1.6000000000000001
sg24
F0.040000000000000001
sS'n'
(lp361
(iomma_geom
subFace
p362
(dp363
S'V'
F0
sg8
(lp364
I0
aI12
aI17
asg10
F0.16
sS'i'
I16
sS'c'
(F0
F0.41294325672918802
F0.087689252770631165
tp365
sg12
g13
(g14
g15
NtRp366
(dp367
g18
F0.01
sg19
F0.040000000000000001
sS'F'
F0.040000000000000001
sS'k'
F0.059999999999999998
sg20
F0.40000000000000002
sg21
F1
sg22
I4
sbsg23
F1.6000000000000001
sg24
F0.040000000000000001
sS'n'
(lp368
g47
ag124
ag355
asS'nextU'
p369
F0
sS'nextV'
p370
F0
sS'U'
F0
sS'F'
F0.050000000000000003
sS'th'
p371
F1.297299501689861
sS'v'
(lp372
g13
(comma_geom
Vertex
p373
g15
NtRp374
(dp375
S'y'
F0.85065080835203999
sS'x'
F-0.49112347465486023
sS'z'
F0.18759247024589748
sS'i'
I0
sbag13
(g373
g15
NtRp376
(dp377
S'y'
F0.5
sS'x'
F-0.8660254037844386
sS'z'
F-6.7698444320124675e-09
sbag13
(g373
g15
NtRp378
(dp379
S'y'
F0.5
sS'x'
F-0.64549722888113248
sS'z'
F0.57735026414368162
sbasS'lat'
p380
F1.297299501689861
sS'lng'
p381
F-0.82482324365853765
sS'pi'
p382
I-1
sS'ph'
p383
F-0.82482324365853765
sS'nv'
p384
g13
(g373
g15
NtRp385
(dp386
S'y'
F0.6534615590031112
sS'x'
F-0.70713083284817213
sS'z'
F0.27009993732075155
sbsba(iomma_geom
subFace
p387
(dp388
S'V'
F0
sg8
(lp389
I34
aI15
aI17
asg10
F0.16
sS'i'
I18
sS'c'
(F0.15882195850733022
F0.48096815937664444
F0
tp390
sg12
g13
(g14
g15
NtRp391
(dp392
g18
F0.01
sg19
F0.040000000000000001
sS'F'
F0.040000000000000001
sS'k'
F0.059999999999999998
sg20
F0.40000000000000002
sg21
F1
sg22
I4
sbsg23
F1.6000000000000001
sg24
F0.040000000000000001
sS'n'
(lp393
(iomma_geom
subFace
p394
(dp395
S'V'
F0
sg8
(lp396
I33
aI71
aI18
asg10
F0.16
sS'i'
I34
sS'c'
(F0.32214620086931423
F0.48096815937664444
F0
tp397
sg12
g13
(g14
g15
NtRp398
(dp399
g18
F0.01
sg19
F0.040000000000000001
sS'F'
F0.040000000000000001
sS'k'
F0.059999999999999998
sg20
F0.40000000000000002
sg21
F1
sg22
I4
sbsg23
F1.6000000000000001
sg24
F0.040000000000000001
sS'n'
(lp400
g313
a(iomma_geom
subFace
p401
(dp402
S'V'
F0
sg8
(lp403
I34
aI36
aI69
asg10
F0.16
sS'i'
I71
sS'c'
(F0.4623941773149523
F0.58705674747450631
F0
tp404
sg12
g13
(g14
g15
NtRp405
(dp406
g18
F0.01
sg19
F0.040000000000000001
sS'F'
F0.040000000000000001
sS'k'
F0.059999999999999998
sg20
F0.40000000000000002
sg21
F1
sg22
I4
sbsg23
F1.6000000000000001
sg24
F0.040000000000000001
sS'n'
(lp407
g394
a(iomma_geom
subFace
p408
(dp409
S'V'
F0
sg8
(lp410
I37
aI71
aI15
asg10
F0.16
sS'i'
I36
sS'c'
(F0.32858817529532763
F0.65717635059065527
F0
tp411
sg12
g13
(g14
g15
NtRp412
(dp413
g18
F0.01
sg19
F0.040000000000000001
sS'F'
F0.040000000000000001
sS'k'
F0.059999999999999998
sg20
F0.40000000000000002
sg21
F1
sg22
I4
sbsg23
F1.6000000000000001
sg24
F0.040000000000000001
sS'n'
(lp414
(iomma_geom
subFace
p415
(dp416
S'V'
F0
sg8
(lp417
I36
aI38
aI39
asg10
F0.16
sS'i'
I37
sS'c'
(F0.38386023764475197
F0.76772047528950393
F0
tp418
sg12
g13
(g14
g15
NtRp419
(dp420
g18
F0.01
sg19
F0.040000000000000001
sS'F'
F0.040000000000000001
sS'k'
F0.059999999999999998
sg20
F0.40000000000000002
sg21
F1
sg22
I4
sbsg23
F1.6000000000000001
sg24
F0.040000000000000001
sS'n'
(lp421
g408
ag145
a(iomma_geom
subFace
p422
(dp423
S'V'
F0
sg8
(lp424
I68
aI37
aI74
asg10
F0.16
sS'i'
I39
sS'c'
(F0.80288281608786849
F0.79595382244681956
F0
tp425
sg12
g13
(g14
g15
NtRp426
(dp427
g18
F0.01
sg19
F0.040000000000000001
sS'F'
F0.040000000000000001
sS'k'
F0.059999999999999998
sg20
F0.40000000000000002
sg21
F1
sg22
I4
sbsg23
F1.6000000000000001
sg24
F0.040000000000000001
sS'n'
(lp428
(iomma_geom
subFace
p429
(dp430
S'V'
F0
sg8
(lp431
I69
aI39
aI51
asg10
F0.16
sS'i'
I68
sS'c'
(F0.70900966193190573
F0.50669818313417081
F0
tp432
sg12
g13
(g14
g15
NtRp433
(dp434
g18
F0.01
sg19
F0.040000000000000001
sS'F'
F0.040000000000000001
sS'k'
F0.059999999999999998
sg20
F0.40000000000000002
sg21
F1
sg22
I4
sbsg23
F1.6000000000000001
sg24
F0.040000000000000001
sS'n'
(lp435
(iomma_geom
subFace
p436
(dp437
S'V'
F0
sg8
(lp438
I68
aI70
aI71
asg10
F0.16
sS'i'
I69
sS'c'
(F0.60817344993654598
F0.52950374090795249
F0
tp439
sg12
g13
(g14
g15
NtRp440
(dp441
g18
F0.01
sg19
F0.040000000000000001
sS'F'
F0.040000000000000001
sS'k'
F0.059999999999999998
sg20
F0.40000000000000002
sg21
F1
sg22
I4
sbsg23
F1.6000000000000001
sg24
F0.040000000000000001
sS'n'
(lp442
g429
a(iomma_geom
subFace
p443
(dp444
S'V'
F0
sg8
(lp445
I35
aI69
aI50
asg10
F0.16
sS'i'
I70
sS'c'
(F0.51903184467805363
F0.34764076076146322
F0
tp446
sg12
g13
(g14
g15
NtRp447
(dp448
g18
F0.01
sg19
F0.040000000000000001
sS'F'
F0.040000000000000001
sS'k'
F0.059999999999999998
sg20
F0.40000000000000002
sg21
F1
sg22
I4
sbsg23
F1.6000000000000001
sg24
F0.040000000000000001
sS'n'
(lp449
g306
ag436
a(iomma_geom
subFace
p450
(dp451
S'V'
F0
sg8
(lp452
I70
aI47
aI49
asg10
F0.16
sS'i'
I50
sS'c'
(F0.51903184391579715
F0.17139108326949704
F0
tp453
sg12
g13
(g14
g15
NtRp454
(dp455
g18
F0.01
sg19
F0.040000000000000001
sS'F'
F0.040000000000000001
sS'k'
F0.059999999999999998
sg20
F0.40000000000000002
sg21
F1
sg22
I4
sbsg23
F1.6000000000000001
sg24
F0.040000000000000001
sS'n'
(lp456
g443
a(iomma_geom
subFace
p457
(dp458
S'V'
F0
sg8
(lp459
I64
aI45
aI50
asg10
F0.16
sS'i'
I47
sS'c'
(F0.41294325545050947
F0.087689253929430139
F0
tp460
sg12
g13
(g14
g15
NtRp461
(dp462
g18
F0.01
sg19
F0.040000000000000001
sS'F'
F0.040000000000000001
sS'k'
F0.059999999999999998
sg20
F0.40000000000000002
sg21
F1
sg22
I4
sbsg23
F1.6000000000000001
sg24
F0.040000000000000001
sS'n'
(lp463
g299
a(iomma_geom
subFace
p464
(dp465
S'V'
F0
sg8
(lp466
I44
aI46
aI47
asg10
F0.16
sS'i'
I45
sS'c'
(F0.39182655169457742
F0
F0.050684356257927457
tp467
sg12
g13
(g14
g15
NtRp468
(dp469
g18
F0.01
sg19
F0.040000000000000001
sS'F'
F0.040000000000000001
sS'k'
F0.059999999999999998
sg20
F0.40000000000000002
sg21
F1
sg22
I4
sbsg23
F1.6000000000000001
sg24
F0.040000000000000001
sS'n'
(lp470
g201
ag278
ag457
asg369
F0
sg370
F0
sS'U'
F0
sS'F'
F0.068125000000000005
sg371
F1.2309594162851056
sS'v'
(lp471
g13
(g373
g15
NtRp472
(dp473
S'y'
F-0.80901699437494734
sS'x'
F0.46708617669202851
sS'z'
F0.35682209342436938
sbag13
(g373
g15
NtRp474
(dp475
S'y'
F-0.80901699437494745
sS'x'
F-0.11026409422149756
sS'z'
F0.57735026832767555
sbag13
(g373
g15
NtRp476
(dp477
S'y'
F-1
sS'x'
F0
sS'z'
F0
sbasg380
F1.2309594162851056
sg381
F3.0061333961001426
sg382
I-1
sg383
F3.0061333961001426
sg384
g13
(g373
g15
NtRp478
(dp479
S'y'
F-0.93417235896271567
sS'x'
F0.12732200114432068
sS'z'
F0.33333333432862761
sbsbag450
asg369
F0
sg370
F0
sS'U'
F0
sS'F'
F0.069375000000000006
sg371
F1.2972994976727739
sS'v'
(lp480
g474
ag13
(g373
g15
NtRp481
(dp482
S'y'
F-0.85065080835203999
sS'x'
F-0.49112347465486023
sS'z'
F0.18759247024589748
sS'i'
I2
sbag476
asg380
F1.2972994976727739
sg381
F-2.9192183424245117
sg382
I-1
sg383
F-2.9192183424245117
sg384
g13
(g373
g15
NtRp483
(dp484
S'y'
F-0.93912404271878569
sS'x'
F-0.21234889723630695
sS'z'
F0.27009994118853264
sbsba(iomma_geom
subFace
p485
(dp486
S'V'
F0
sg8
(lp487
I48
aI50
aI51
asg10
F0.16
sS'i'
I49
sS'c'
(F0.60817344830542264
F0.078669706244286819
F0
tp488
sg12
g13
(g14
g15
NtRp489
(dp490
g18
F0.01
sg19
F0.040000000000000001
sS'F'
F0.040000000000000001
sS'k'
F0.059999999999999998
sg20
F0.40000000000000002
sg21
F1
sg22
I4
sbsg23
F1.6000000000000001
sg24
F0.040000000000000001
sS'n'
(lp491
g194
ag450
a(iomma_geom
subFace
p492
(dp493
S'V'
F0
sg8
(lp494
I68
aI49
aI54
asg10
F0.16
sS'i'
I51
sS'c'
(F0.70900966097125095
F0.20231147163620292
F0
tp495
sg12
g13
(g14
g15
NtRp496
(dp497
g18
F0.01
sg19
F0.040000000000000001
sS'F'
F0.040000000000000001
sS'k'
F0.059999999999999998
sg20
F0.40000000000000002
sg21
F1
sg22
I4
sbsg23
F1.6000000000000001
sg24
F0.040000000000000001
sS'n'
(lp498
g429
ag485
a(iomma_geom
subFace
p499
(dp500
S'V'
F0
sg8
(lp501
I74
aI51
aI53
asg10
F0.16
sS'i'
I54
sS'c'
(F0.80288281396677919
F0.0069289809450423945
F0
tp502
sg12
g13
(g14
g15
NtRp503
(dp504
g18
F0.01
sg19
F0.040000000000000001
sS'F'
F0.040000000000000001
sS'k'
F0.059999999999999998
sg20
F0.40000000000000002
sg21
F1
sg22
I4
sbsg23
F1.6000000000000001
sg24
F0.040000000000000001
sS'n'
(lp505
(iomma_geom
subFace
p506
(dp507
S'V'
F0
sg8
(lp508
I39
aI73
aI54
asg10
F0.16
sS'i'
I74
sS'c'
(F0.88945587654528835
F0.44472792238641917
F0
tp509
sg12
g13
(g14
g15
NtRp510
(dp511
g18
F0.01
sg19
F0.040000000000000001
sS'F'
F0.040000000000000001
sS'k'
F0.059999999999999998
sg20
F0.40000000000000002
sg21
F1
sg22
I4
sbsg23
F1.6000000000000001
sg24
F0.040000000000000001
sS'n'
(lp512
g422
ag159
ag499
asg369
F0
sg370
F0
sS'U'
F0
sS'F'
F0.086249999999999993
sg371
F2.7943080474469477
sS'v'
(lp513
g13
(g373
g15
NtRp514
(dp515
S'y'
F-0.3090169943749474
sS'x'
F0.17841105218910391
sS'z'
F-0.93417235756805106
sbag13
(g373
g15
NtRp516
(dp517
S'y'
F-0.52573111211913359
sS'x'
F-0.30353099289141544
sS'z'
F-0.79465447466451133
sS'i'
I6
sbag13
(g373
g15
NtRp518
(dp519
S'y'
F0
sS'x'
F-0.35682208247053099
sS'z'
F-0.93417236175204499
sbasg380
F2.7943080474469477
sg381
F-2.617993896695082
sg382
I-1
sg383
F-2.617993896695082
sg384
g13
(g373
g15
NtRp520
(dp521
S'y'
F-0.29474809433674326
sS'x'
F-0.17017288425798563
sS'z'
F-0.94030035113689958
sbsbag492
ag180
asg369
F0
sg370
F0
sS'U'
F0
sS'F'
F0.07375000000000001
sg371
F2.522330750051534
sS'v'
(lp522
g13
(g373
g15
NtRp523
(dp524
S'y'
F-0.80901699437494745
sS'x'
F0.11026409422149756
sS'z'
F-0.57735026832767555
sbag516
ag13
(g373
g15
NtRp525
(dp526
S'y'
F-0.3090169943749474
sS'x'
F0.17841105218910391
sS'z'
F-0.93417235756805106
sbasg380
F2.522330750051534
sg381
F-3.1325552053449033
sg382
I-1
sg383
F-3.1325552053449033
sg384
g13
(g373
g15
NtRp527
(dp528
S'y'
F-0.5804105780524178
sS'x'
F-0.0052455733722711652
sS'z'
F-0.81430709492479214
sbsbasg369
F0
sg370
F0
sS'U'
F0
sS'F'
F0.071874999999999994
sg371
F2.227419542231472
sS'v'
(lp529
g13
(g373
g15
NtRp530
(dp531
S'y'
F-0.80901699437494734
sS'x'
F-0.46708617669202851
sS'z'
F-0.35682209342436938
sbag516
ag13
(g373
g15
NtRp532
(dp533
S'y'
F-0.80901699437494745
sS'x'
F0.11026409422149756
sS'z'
F-0.57735026832767555
sbasg380
F2.227419542231472
sg381
F-2.8427813829701645
sg382
I-1
sg383
F-2.8427813829701645
sg384
g13
(g373
g15
NtRp534
(dp535
S'y'
F-0.756959702299418
sS'x'
F-0.23316951429792993
sS'z'
F-0.61044572788810969
sbsbasg369
F0
sg370
F0
sS'U'
F0
sS'F'
F0.070625000000000007
sg371
F1.9106332373046875
sS'v'
(lp536
g13
(g373
g15
NtRp537
(dp538
S'y'
F-1
sS'x'
F0
sS'z'
F0
sbag530
ag532
asg380
F1.9106332373046875
sg381
F-3.0061333961001426
sg382
I-1
sg383
F-3.0061333961001426
sg384
g13
(g373
g15
NtRp539
(dp540
S'y'
F-0.93417235896271567
sS'x'
F-0.12732200114432068
sS'z'
F-0.33333333432862761
sbsbasg369
F0
sg370
F0
sS'U'
F0
sS'F'
F0.071250000000000008
sg371
F1.6305866278250325
sS'v'
(lp541
g537
ag481
ag530
asg380
F1.6305866278250325
sg381
F-2.7957943662579918
sg382
I-1
sg383
F-2.7957943662579918
sg384
g13
(g373
g15
NtRp542
(dp543
S'y'
F-0.93912404271878569
sS'x'
F-0.33834214958063319
sS'z'
F-0.05975468353761812
sbsbasg369
F0
sg370
F0
sS'U'
F0
sS'F'
F0.083749999999999991
sg371
F1.6305866302197318
sS'v'
(lp544
g13
(g373
g15
NtRp545
(dp546
S'y'
F-0.80901699437494734
sS'x'
F-0.46708617669202851
sS'z'
F-0.35682209342436938
sbag481
ag13
(g373
g15
NtRp547
(dp548
S'y'
F-0.5
sS'x'
F-0.8660254037844386
sS'z'
F-6.7698444320124675e-09
sbasg380
F1.6305866302197318
sg381
F-2.4401933905227273
sg382
I-1
sg383
F-2.4401933905227273
sg384
g13
(g373
g15
NtRp549
(dp550
S'y'
F-0.7625749184717856
sS'x'
F-0.64413420280822786
sS'z'
F-0.059754685928038329
sbsbag401
asg369
F0
sg370
F0
sS'U'
F0
sS'F'
F0.083125000000000004
sg371
F1.9106332424290127
sS'v'
(lp551
g545
ag547
ag13
(g373
g15
NtRp552
(dp553
S'y'
F-0.30901699437494745
sS'x'
F-0.75576130956294107
sS'z'
F-0.57735027509752013
sbasg380
F1.9106332424290127
sg381
F-2.2298543643137667
sg382
I-1
sg383
F-2.2298543643137667
sg384
g13
(g373
g15
NtRp554
(dp555
S'y'
F-0.57735026918962573
sS'x'
F-0.74535598989421548
sS'z'
F-0.33333333915988772
sbsbag422
ag492
asg369
F0
sg370
F0
sS'U'
F0
sS'F'
F0.082500000000000004
sg371
F2.2274195452494578
sS'v'
(lp556
g516
ag545
ag552
asg380
F2.2274195452494578
sg381
F-2.3932063831854418
sg382
I-1
sg383
F-2.3932063831854418
sg384
g13
(g373
g15
NtRp557
(dp558
S'y'
F-0.5804105780524178
sS'x'
F-0.5389615675255246
sS'z'
F-0.61044573027853
sbsbag415
ag506
asg369
F0
sg370
F0
sS'U'
F0
sS'F'
F0.064375000000000002
sg371
F2.5223307567151325
sS'v'
(lp559
g13
(g373
g15
NtRp560
(dp561
S'y'
F0
sS'x'
F-0.35682208247053099
sS'z'
F-0.93417236175204499
sbag516
ag13
(g373
g15
NtRp562
(dp563
S'y'
F-0.30901699437494745
sS'x'
F-0.75576130956294107
sS'z'
F-0.57735027509752013
sbasg380
F2.5223307567151325
sg381
F-2.1034325671735714
sg382
I-1
sg383
F-2.1034325671735714
sg384
g13
(g373
g15
NtRp564
(dp565
S'y'
F-0.29474809433674332
sS'x'
F-0.50002750898413639
sS'z'
F-0.81430709879257324
sbsbasg369
F0
sg370
F0
sS'U'
F0
sS'F'
F0.063125000000000001
sg371
F2.4118650051799699
sS'v'
(lp566
g13
(g373
g15
NtRp567
(dp568
S'y'
F0.30901699437494745
sS'x'
F-0.75576130956294107
sS'z'
F-0.57735027509752013
sbag560
ag562
asg380
F2.4118650051799699
sg381
F-1.5707963267948966
sg382
I-1
sg383
F-1.5707963267948966
sg384
g13
(g373
g15
NtRp569
(dp570
S'y'
F0
sS'x'
F-0.66666666084011217
sS'z'
F-0.74535599771135852
sbsbag401
a(iomma_geom
subFace
p571
(dp572
S'V'
F0
sg8
(lp573
I36
aI13
aI18
asg10
F0.16
sS'i'
I15
sS'c'
(F0.12466257015955413
F0.58705674747450631
F0
tp574
sg12
g13
(g14
g15
NtRp575
(dp576
g18
F0.01
sg19
F0.040000000000000001
sS'F'
F0.040000000000000001
sS'k'
F0.059999999999999998
sg20
F0.40000000000000002
sg21
F1
sg22
I4
sbsg23
F1.6000000000000001
sg24
F0.040000000000000001
sS'n'
(lp577
g408
ag131
ag387
asg369
F0
sg370
F0
sS'U'
F0
sS'F'
F0.049375000000000002
sg371
F1.8442931651062273
sS'v'
(lp578
g13
(g373
g15
NtRp579
(dp580
S'y'
F0.30901699437494745
sS'x'
F-0.75576130956294107
sS'z'
F-0.57735027509752013
sbag13
(g373
g15
NtRp581
(dp582
S'y'
F0
sS'x'
F-0.98224694491040876
sS'z'
F-0.18759248176344476
sS'i'
I10
sbag13
(g373
g15
NtRp583
(dp584
S'y'
F0.5
sS'x'
F-0.8660254037844386
sS'z'
F-6.7698444320124675e-09
sbasg380
F1.8442931651062273
sg381
F-1.2695718595723451
sg382
I-1
sg383
F-1.2695718595723451
sg384
g13
(g373
g15
NtRp585
(dp586
S'y'
F0.28566248371567449
sS'x'
F-0.91947972375024933
sS'z'
F-0.27009995003619891
sbsbasg369
F0
sg370
F0
sS'U'
F0
sS'F'
F0.0625
sg371
F2.0645803951285528
sS'v'
(lp587
g581
ag567
ag562
asg380
F2.0645803951285528
sg381
F-1.5707963267948966
sg382
I-1
sg383
F-1.5707963267948966
sg384
g13
(g373
g15
NtRp588
(dp589
S'y'
F0
sS'x'
F-0.88054566520886124
sS'z'
F-0.47396131855024232
sbsbag436
asg369
F0
sg370
F0
sS'U'
F0
sS'F'
F0.084375000000000006
sg371
F1.8442931651062273
sS'v'
(lp590
g547
ag581
ag552
asg380
F1.8442931651062273
sg381
F-1.8720207940174483
sg382
I-1
sg383
F-1.8720207940174483
sg384
g13
(g373
g15
NtRp591
(dp592
S'y'
F-0.28566248371567449
sS'x'
F-0.91947972375024944
sS'z'
F-0.27009995003619891
sbsbag387
asg369
F0
sg370
F0
sS'U'
F0
sS'F'
F0.061249999999999999
sg371
F1.5110060361082709
sS'v'
(lp593
g13
(g373
g15
NtRp594
(dp595
S'y'
F0
sS'x'
F-0.93417236175204499
sS'z'
F0.35682208247053099
sbag581
ag13
(g373
g15
NtRp596
(dp597
S'y'
F-0.5
sS'x'
F-0.8660254037844386
sS'z'
F-6.7698444320124675e-09
sbasg380
F1.5110060361082709
sg381
F-1.7485968145383837
sg382
I-1
sg383
F-1.7485968145383837
sg384
g13
(g373
g15
NtRp598
(dp599
S'y'
F-0.1765491242470002
sS'x'
F-0.98247635379019371
sS'z'
F0.059754673212590981
sbsbag571
ag355
asg369
F0
sg370
F0
sS'U'
F0
sS'F'
F0.051250000000000004
sg371
F1.5110060361082709
sS'v'
(lp600
g376
ag581
ag13
(g373
g15
NtRp601
(dp602
S'y'
F0
sS'x'
F-0.93417236175204499
sS'z'
F0.35682208247053099
sbasg380
F1.5110060361082709
sg381
F-1.3929958390514094
sg382
I-1
sg383
F-1.3929958390514094
sg384
g13
(g373
g15
NtRp603
(dp604
S'y'
F0.1765491242470002
sS'x'
F-0.98247635379019371
sS'z'
F0.059754673212590981
sbsbag348
asg369
F0
sg370
F0
sS'U'
F0
sS'F'
F0.050625000000000003
sg371
F1.2309594245764379
sS'v'
(lp605
g376
ag601
ag378
asg380
F1.2309594245764379
sg381
F-1.1826568124707064
sg382
I-1
sg383
F-1.1826568124707064
sg384
g13
(g373
g15
NtRp606
(dp607
S'y'
F0.35682208977308988
sS'x'
F-0.87267799885567932
sS'z'
F0.33333332651148462
sbsbasg369
F0
sg370
F0
sS'U'
F0
sS'F'
F0.051875000000000004
sg371
F0.91417312128004125
sS'v'
(lp608
g601
ag13
(g373
g15
NtRp609
(dp610
S'y'
F0
sS'x'
F-0.60706200441861391
sS'z'
F0.79465446754627567
sS'i'
I11
sbag378
asg380
F0.91417312128004125
sg381
F-1.346008828916899
sg382
I-1
sg383
F-1.346008828916899
sg384
g13
(g373
g15
NtRp611
(dp612
S'y'
F0.1765491242470002
sS'x'
F-0.77213109613927922
sS'z'
F0.61044572002953112
sbsbag334
asg369
F0
sg370
F0
sS'U'
F0
sS'F'
F0.041250000000000002
sg371
F0.61926191041379619
sS'v'
(lp613
g13
(g373
g15
NtRp614
(dp615
S'y'
F0.5
sS'x'
F-0.64549722888113248
sS'z'
F0.57735026414368162
sbag609
ag13
(g373
g15
NtRp616
(dp617
S'y'
F0.3090169943749474
sS'x'
F-0.17841105218910391
sS'z'
F0.93417235756805106
sbasg380
F0.61926191041379619
sg381
F-1.0562350158053078
sg382
I-1
sg383
F-1.0562350158053078
sg384
g13
(g373
g15
NtRp618
(dp619
S'y'
F0.28566248371567449
sS'x'
F-0.50527310145307269
sS'z'
F0.81430709093399478
sbsbag327
ag6
asg369
F0
sg370
F0
sS'U'
F0
sS'F'
F0.053750000000000006
sg371
F0.34728461786856035
sS'v'
(lp620
g13
(g373
g15
NtRp621
(dp622
S'y'
F0.3090169943749474
sS'x'
F-0.17841105218910391
sS'z'
F0.93417235756805106
sbag609
ag13
(g373
g15
NtRp623
(dp624
S'y'
F-0.3090169943749474
sS'x'
F-0.17841105218910391
sS'z'
F0.93417235756805106
sbasg380
F0.34728461786856035
sg381
F-1.5707963267948966
sg382
I-1
sg383
F-1.5707963267948966
sg384
g13
(g373
g15
NtRp625
(dp626
S'y'
F0
sS'x'
F-0.3403457905673582
sS'z'
F0.940300347146102
sbsbasg369
F0
sg370
F0
sS'U'
F0
sS'F'
F0.081875000000000003
sg371
F0.61926191041379619
sS'v'
(lp627
g13
(g373
g15
NtRp628
(dp629
S'y'
F-0.3090169943749474
sS'x'
F-0.17841105218910391
sS'z'
F0.93417235756805106
sbag609
ag13
(g373
g15
NtRp630
(dp631
S'y'
F-0.5
sS'x'
F-0.64549722888113248
sS'z'
F0.57735026414368162
sbasg380
F0.61926191041379619
sg381
F-2.0853576377844854
sg382
I-1
sg383
F-2.0853576377844854
sg384
g13
(g373
g15
NtRp632
(dp633
S'y'
F-0.28566248371567449
sS'x'
F-0.50527310145307269
sS'z'
F0.81430709093399478
sbsbag348
asg369
F0
sg370
F0
sS'U'
F0
sS'F'
F0.059999999999999998
sg371
F0.91417312128004125
sS'v'
(lp634
g609
ag594
ag13
(g373
g15
NtRp635
(dp636
S'y'
F-0.5
sS'x'
F-0.64549722888113248
sS'z'
F0.57735026414368162
sbasg380
F0.91417312128004125
sg381
F-1.7955838246728943
sg382
I-1
sg383
F-1.7955838246728943
sg384
g13
(g373
g15
NtRp637
(dp638
S'y'
F-0.1765491242470002
sS'x'
F-0.77213109613927922
sS'z'
F0.61044572002953112
sbsbag394
ag306
asg369
F0
sg370
F0
sS'U'
F0
sS'F'
F0.060624999999999998
sg371
F1.2309594245764379
sS'v'
(lp639
g594
ag596
ag635
asg380
F1.2309594245764379
sg381
F-1.9589358411190869
sg382
I-1
sg383
F-1.9589358411190869
sg384
g13
(g373
g15
NtRp640
(dp641
S'y'
F-0.35682208977308988
sS'x'
F-0.87267799885567932
sS'z'
F0.33333332651148462
sbsbag443
asg369
F0
sg370
F0
sS'U'
F0
sS'F'
F0.061874999999999999
sg371
F1.297299501689861
sS'v'
(lp642
g596
ag481
ag635
asg380
F1.297299501689861
sg381
F-2.3167694099312555
sg382
I-1
sg383
F-2.3167694099312555
sg384
g13
(g373
g15
NtRp643
(dp644
S'y'
F-0.6534615590031112
sS'x'
F-0.70713083284817213
sS'z'
F0.27009993732075155
sbsbag457
asg369
F0
sg370
F0
sS'U'
F0
sS'F'
F0.080000000000000002
sg371
F1.0770122701869551
sS'v'
(lp645
g481
ag13
(g373
g15
NtRp646
(dp647
S'y'
F-0.80901699437494745
sS'x'
F-0.11026409422149756
sS'z'
F0.57735026832767555
sbag630
asg380
F1.0770122701869551
sg381
F-2.617993874347567
sg382
I-1
sg383
F-2.617993874347567
sg384
g13
(g373
g15
NtRp648
(dp649
S'y'
F-0.7625749184717856
sS'x'
F-0.44027283816196572
sS'z'
F0.47396130822521509
sbsbag285
ag327
asg369
F0
sg370
F0
sS'U'
F0
sS'F'
F0.080625000000000002
sg371
F0.72972766013553803
sS'v'
(lp650
g646
ag628
ag630
asg380
F0.72972766013553803
sg381
F-2.6179938704225783
sg382
I-1
sg383
F-2.6179938704225783
sg384
g13
(g373
g15
NtRp651
(dp652
S'y'
F-0.57735026918962573
sS'x'
F-0.33333333915988772
sS'z'
F0.74535598989421548
sbsbag278
a(iomma_geom
subFace
p653
(dp654
S'V'
F0
sg8
(lp655
I66
aI21
aI60
asg10
F0.16
sS'i'
I23
sS'c'
(F0.11054412345471176
F0
F0.055272059752970316
tp656
sg12
g13
(g14
g15
NtRp657
(dp658
g18
F0.01
sg19
F0.040000000000000001
sS'F'
F0.040000000000000001
sS'k'
F0.059999999999999998
sg20
F0.40000000000000002
sg21
F1
sg22
I4
sbsg23
F1.6000000000000001
sg24
F0.040000000000000001
sS'n'
(lp659
g285
ag6
ag264
asg369
F0
sg370
F0
sS'U'
F0
sS'F'
F0.054375000000000007
sg371
F0.34728460614284562
sS'v'
(lp660
g623
ag13
(g373
g15
NtRp661
(dp662
S'y'
F-0.52573111211913359
sS'x'
F0.30353099289141544
sS'z'
F0.79465447466451133
sS'i'
I4
sbag13
(g373
g15
NtRp663
(dp664
S'y'
F0
sS'x'
F0.35682208247053099
sS'z'
F0.93417236175204499
sbasg380
F0.34728460614284562
sg381
F2.617993896695082
sg382
I-1
sg383
F2.617993896695082
sg384
g13
(g373
g15
NtRp665
(dp666
S'y'
F-0.29474809433674326
sS'x'
F0.17017288425798563
sS'z'
F0.94030035113689958
sbsbasg369
F0
sg370
F0
sS'U'
F0
sS'F'
F0.081250000000000003
sg371
F0.61926190353825927
sS'v'
(lp667
g646
ag661
ag628
asg380
F0.61926190353825927
sg381
F3.1325552053449033
sg382
I-1
sg383
F3.1325552053449033
sg384
g13
(g373
g15
NtRp668
(dp669
S'y'
F-0.5804105780524178
sS'x'
F0.0052455733722711652
sS'z'
F0.81430709492479214
sbsbag271
ag464
asg369
F0
sg370
F0
sS'U'
F0
sS'F'
F0.068750000000000006
sg371
F0.91417311135832124
sS'v'
(lp670
g472
ag661
ag474
asg380
F0.91417311135832124
sg381
F2.8427813829701645
sg382
I-1
sg383
F2.8427813829701645
sg384
g13
(g373
g15
NtRp671
(dp672
S'y'
F-0.756959702299418
sS'x'
F0.23316951429792993
sS'z'
F0.61044572788810969
sbsbag264
asg369
F0
sg370
F0
sS'U'
F0
sS'F'
F0.066875000000000004
sg371
F0.91417310834033516
sS'v'
(lp673
g13
(g373
g15
NtRp674
(dp675
S'y'
F-0.30901699437494745
sS'x'
F0.75576130956294107
sS'z'
F0.57735027509752013
sbag661
ag13
(g373
g15
NtRp676
(dp677
S'y'
F-0.80901699437494734
sS'x'
F0.46708617669202851
sS'z'
F0.35682209342436938
sbasg380
F0.91417310834033516
sg381
F2.3932063831854418
sg382
I-1
sg383
F2.3932063831854418
sg384
g13
(g373
g15
NtRp678
(dp679
S'y'
F-0.5804105780524178
sS'x'
F0.5389615675255246
sS'z'
F0.61044573027853
sbsbag653
ag257
asg369
F0
sg370
F0
sS'U'
F0
sS'F'
F0.077499999999999999
sg371
F0.61926189687466038
sS'v'
(lp680
g661
ag13
(g373
g15
NtRp681
(dp682
S'y'
F-0.30901699437494745
sS'x'
F0.75576130956294107
sS'z'
F0.57735027509752013
sbag13
(g373
g15
NtRp683
(dp684
S'y'
F0
sS'x'
F0.35682208247053099
sS'z'
F0.93417236175204499
sbasg380
F0.61926189687466038
sg381
F2.1034325671735714
sg382
I-1
sg383
F2.1034325671735714
sg384
g13
(g373
g15
NtRp685
(dp686
S'y'
F-0.29474809433674326
sS'x'
F0.50002750898413639
sS'z'
F0.81430709879257335
sbsbag250
a(iomma_geom
subFace
p687
(dp688
S'V'
F0
sg8
(lp689
I20
aI26
aI61
asg10
F0.16
sS'i'
I63
sS'c'
(F0
F0.0017011495158457664
F0.19711718391213146
tp690
sg12
g13
(g14
g15
NtRp691
(dp692
g18
F0.01
sg19
F0.040000000000000001
sS'F'
F0.040000000000000001
sS'k'
F0.059999999999999998
sg20
F0.40000000000000002
sg21
F1
sg22
I4
sbsg23
F1.6000000000000001
sg24
F0.040000000000000001
sS'n'
(lp693
g26
ag75
ag257
asg369
F0
sg370
F0
sS'U'
F0
sS'F'
F0.079375000000000001
sg371
F0.61926189687466038
sS'v'
(lp694
g13
(g373
g15
NtRp695
(dp696
S'y'
F0.30901699437494745
sS'x'
F0.75576130956294107
sS'z'
F0.57735027509752013
sbag13
(g373
g15
NtRp697
(dp698
S'y'
F0.52573111211913359
sS'x'
F0.30353099289141544
sS'z'
F0.79465447466451133
sS'i'
I5
sbag683
asg380
F0.61926189687466038
sg381
F1.0381600864162217
sg382
I-1
sg383
F1.0381600864162217
sg384
g13
(g373
g15
NtRp699
(dp700
S'y'
F0.29474809433674326
sS'x'
F0.50002750898413639
sS'z'
F0.81430709879257335
sbsbasg369
F0
sg370
F0
sS'U'
F0
sS'F'
F0.078125
sg371
F0.7297276484098234
sS'v'
(lp701
g681
ag695
ag683
asg380
F0.7297276484098234
sg381
F1.5707963267948966
sg382
I-1
sg383
F1.5707963267948966
sg384
g13
(g373
g15
NtRp702
(dp703
S'y'
F0
sS'x'
F0.66666666084011217
sS'z'
F0.74535599771135852
sbsbasg369
F0
sg370
F0
sS'U'
F0
sS'F'
F0.078750000000000001
sg371
F1.0770122584612405
sS'v'
(lp704
g681
ag13
(g373
g15
NtRp705
(dp706
S'y'
F0
sS'x'
F0.98224694491040876
sS'z'
F0.18759248176344476
sS'i'
I9
sbag695
asg380
F1.0770122584612405
sg381
F1.5707963267948966
sg382
I-1
sg383
F1.5707963267948966
sg384
g13
(g373
g15
NtRp707
(dp708
S'y'
F0
sS'x'
F0.88054566520886124
sS'z'
F0.47396131855024232
sbsbasg369
F0
sg370
F0
sS'U'
F0
sS'F'
F0.056875000000000002
sg371
F1.2972994884835658
sS'v'
(lp709
g13
(g373
g15
NtRp710
(dp711
S'y'
F0.30901699437494745
sS'x'
F0.75576130956294107
sS'z'
F0.57735027509752013
sbag705
ag13
(g373
g15
NtRp712
(dp713
S'y'
F0.5
sS'x'
F0.8660254037844386
sS'z'
F6.7698444320124675e-09
sbasg380
F1.2972994884835658
sg381
F1.2695718595723451
sg382
I-1
sg383
F1.2695718595723451
sg384
g13
(g373
g15
NtRp714
(dp715
S'y'
F0.28566248371567449
sS'x'
F0.91947972375024933
sS'z'
F0.27009995003619891
sbsba(iomma_geom
subFace
p716
(dp717
S'V'
F0
sg8
(lp718
I76
aI78
aI79
asg10
F0.16
sS'i'
I77
sS'c'
(F0.078669708100766692
F0
F0.60817344566620968
tp719
sg12
g13
(g14
g15
NtRp720
(dp721
g18
F0.01
sg19
F0.040000000000000001
sS'F'
F0.040000000000000001
sS'k'
F0.059999999999999998
sg20
F0.40000000000000002
sg21
F1
sg22
I4
sbsg23
F1.6000000000000001
sg24
F0.040000000000000001
sS'n'
(lp722
g236
a(iomma_geom
subFace
p723
(dp724
S'V'
F0
sg8
(lp725
I77
aI58
aI31
asg10
F0.16
sS'i'
I78
sS'c'
(F0.20231147554257692
F0
F0.70900965781306946
tp726
sg12
g13
(g14
g15
NtRp727
(dp728
g18
F0.01
sg19
F0.040000000000000001
sS'F'
F0.040000000000000001
sS'k'
F0.059999999999999998
sg20
F0.40000000000000002
sg21
F1
sg22
I4
sbsg23
F1.6000000000000001
sg24
F0.040000000000000001
sS'n'
(lp729
g716
a(iomma_geom
subFace
p730
(dp731
S'V'
F0
sg8
(lp732
I78
aI55
aI57
asg10
F0.16
sS'i'
I58
sS'c'
(F0.50669818227049257
F0
F0.70900965781306946
tp733
sg12
g13
(g14
g15
NtRp734
(dp735
g18
F0.01
sg19
F0.040000000000000001
sS'F'
F0.040000000000000001
sS'k'
F0.059999999999999998
sg20
F0.40000000000000002
sg21
F1
sg22
I4
sbsg23
F1.6000000000000001
sg24
F0.040000000000000001
sS'n'
(lp736
g723
ag173
a(iomma_geom
subFace
p737
(dp738
S'V'
F0
sg8
(lp739
I56
aI58
aI59
asg10
F0.16
sS'i'
I57
sS'c'
(F0.529503737565443
F0
F0.60817344566620968
tp740
sg12
g13
(g14
g15
NtRp741
(dp742
g18
F0.01
sg19
F0.040000000000000001
sS'F'
F0.040000000000000001
sS'k'
F0.059999999999999998
sg20
F0.40000000000000002
sg21
F1
sg22
I4
sbsg23
F1.6000000000000001
sg24
F0.040000000000000001
sS'n'
(lp743
(iomma_geom
subFace
p744
(dp745
S'V'
F0
sg8
(lp746
I40
aI52
aI57
asg10
F0.16
sS'i'
I56
sS'c'
(F0.58705674327081203
F0
F0.46239417447352571
tp747
sg12
g13
(g14
g15
NtRp748
(dp749
g18
F0.01
sg19
F0.040000000000000001
sS'F'
F0.040000000000000001
sS'k'
F0.059999999999999998
sg20
F0.40000000000000002
sg21
F1
sg22
I4
sbsg23
F1.6000000000000001
sg24
F0.040000000000000001
sS'n'
(lp750
g208
ag187
ag737
asg369
F0
sg370
F0
sS'U'
F0
sS'F'
F0.075000000000000011
sg371
F1.8442931518999324
sS'v'
(lp751
g13
(g373
g15
NtRp752
(dp753
S'y'
F-0.85065080835203999
sS'x'
F0.49112347465486023
sS'z'
F-0.18759247024589748
sS'i'
I3
sbag13
(g373
g15
NtRp754
(dp755
S'y'
F-0.5
sS'x'
F0.64549722888113248
sS'z'
F-0.57735026414368162
sbag13
(g373
g15
NtRp756
(dp757
S'y'
F-0.5
sS'x'
F0.8660254037844386
sS'z'
F6.7698444320124675e-09
sbasg380
F1.8442931518999324
sg381
F2.3167694099312555
sg382
I-1
sg383
F2.3167694099312555
sg384
g13
(g373
g15
NtRp758
(dp759
S'y'
F-0.6534615590031112
sS'x'
F0.70713083284817213
sS'z'
F-0.27009993732075155
sbsbag730
ag229
asg369
F0
sg370
F0
sS'U'
F0
sS'F'
F0.075624999999999998
sg371
F1.9106332290133554
sS'v'
(lp760
g754
ag13
(g373
g15
NtRp761
(dp762
S'y'
F0
sS'x'
F0.93417236175204499
sS'z'
F-0.35682208247053099
sbag756
asg380
F1.9106332290133554
sg381
F1.9589358411190869
sg382
I-1
sg383
F1.9589358411190869
sg384
g13
(g373
g15
NtRp763
(dp764
S'y'
F-0.35682208977308988
sS'x'
F0.87267799885567932
sS'z'
F-0.33333332651148462
sbsbasg369
F0
sg370
F0
sS'U'
F0
sS'F'
F0.076250000000000012
sg371
F2.2274195323097521
sS'v'
(lp765
g754
ag13
(g373
g15
NtRp766
(dp767
S'y'
F0
sS'x'
F0.60706200441861391
sS'z'
F-0.79465446754627567
sS'i'
I8
sbag761
asg380
F2.2274195323097521
sg381
F1.7955838246728943
sg382
I-1
sg383
F1.7955838246728943
sg384
g13
(g373
g15
NtRp768
(dp769
S'y'
F-0.1765491242470002
sS'x'
F0.77213109613927922
sS'z'
F-0.61044572002953112
sbsba(iomma_geom
subFace
p770
(dp771
S'V'
F0
sg8
(lp772
I72
aI78
aI29
asg10
F0.16
sS'i'
I31
sS'c'
(F0.0069289934722407522
F0
F0.80288281177822773
tp773
sg12
g13
(g14
g15
NtRp774
(dp775
g18
F0.01
sg19
F0.040000000000000001
sS'F'
F0.040000000000000001
sS'k'
F0.059999999999999998
sg20
F0.40000000000000002
sg21
F1
sg22
I4
sbsg23
F1.6000000000000001
sg24
F0.040000000000000001
sS'n'
(lp776
g166
ag723
a(iomma_geom
subFace
p777
(dp778
S'V'
F0
sg8
(lp779
I28
aI30
aI31
asg10
F0.16
sS'i'
I29
sS'c'
(F0
F0.38386023022962973
F0.76772047155709311
tp780
sg12
g13
(g14
g15
NtRp781
(dp782
g18
F0.01
sg19
F0.040000000000000001
sS'F'
F0.040000000000000001
sS'k'
F0.059999999999999998
sg20
F0.40000000000000002
sg21
F1
sg22
I4
sbsg23
F1.6000000000000001
sg24
F0.040000000000000001
sS'n'
(lp783
(iomma_geom
subFace
p784
(dp785
S'V'
F0
sg8
(lp786
I11
aI75
aI29
asg10
F0.16
sS'i'
I28
sS'c'
(F0
F0.80288281396677919
F0.79595383302173672
tp787
sg12
g13
(g14
g15
NtRp788
(dp789
g18
F0.01
sg19
F0.040000000000000001
sS'F'
F0.040000000000000001
sS'k'
F0.059999999999999998
sg20
F0.40000000000000002
sg21
F1
sg22
I4
sbsg23
F1.6000000000000001
sg24
F0.040000000000000001
sS'n'
(lp790
(iomma_geom
subFace
p791
(dp792
S'V'
F0
sg8
(lp793
I9
aI14
aI28
asg10
F0.16
sS'i'
I11
sS'c'
(F0
F0.70900966097125095
F0.50669818933504784
tp794
sg12
g13
(g14
g15
NtRp795
(dp796
g18
F0.01
sg19
F0.040000000000000001
sS'F'
F0.040000000000000001
sS'k'
F0.059999999999999998
sg20
F0.40000000000000002
sg21
F1
sg22
I4
sbsg23
F1.6000000000000001
sg24
F0.040000000000000001
sS'n'
(lp797
g110
ag138
ag784
asg369
F0
sg370
F0
sS'U'
F0
sS'F'
F0.046875
sg371
F2.227419542231472
sS'v'
(lp798
g13
(g373
g15
NtRp799
(dp800
S'y'
F0.80901699437494745
sS'x'
F0.11026409422149756
sS'z'
F-0.57735026832767555
sbag13
(g373
g15
NtRp801
(dp802
S'y'
F0.52573111211913359
sS'x'
F-0.30353099289141544
sS'z'
F-0.79465447466451133
sS'i'
I7
sbag13
(g373
g15
NtRp803
(dp804
S'y'
F0.80901699437494734
sS'x'
F-0.46708617669202851
sS'z'
F-0.35682209342436938
sbasg380
F2.227419542231472
sg381
F-0.29881127061962875
sg382
I-1
sg383
F-0.29881127061962875
sg384
g13
(g373
g15
NtRp805
(dp806
S'y'
F0.756959702299418
sS'x'
F-0.23316951429792993
sS'z'
F-0.61044572788810969
sbsbag152
ag777
asg369
F0
sg370
F0
sS'U'
F0
sS'F'
F0.057500000000000002
sg371
F2.522330750051534
sS'v'
(lp807
g801
ag13
(g373
g15
NtRp808
(dp809
S'y'
F0.80901699437494745
sS'x'
F0.11026409422149756
sS'z'
F-0.57735026832767555
sbag13
(g373
g15
NtRp810
(dp811
S'y'
F0.3090169943749474
sS'x'
F0.17841105218910391
sS'z'
F-0.93417235756805106
sbasg380
F2.522330750051534
sg381
F-0.0090374482448898341
sg382
I-1
sg383
F-0.0090374482448898341
sg384
g13
(g373
g15
NtRp812
(dp813
S'y'
F0.5804105780524178
sS'x'
F-0.0052455733722711652
sS'z'
F-0.81430709492479214
sbsba(iomma_geom
subFace
p814
(dp815
S'V'
F0
sg8
(lp816
I10
aI79
aI29
asg10
F0.16
sS'i'
I30
sS'c'
(F0
F0.32858817114234967
F0.65717634685824433
tp817
sg12
g13
(g14
g15
NtRp818
(dp819
g18
F0.01
sg19
F0.040000000000000001
sS'F'
F0.040000000000000001
sS'k'
F0.059999999999999998
sg20
F0.40000000000000002
sg21
F1
sg22
I4
sbsg23
F1.6000000000000001
sg24
F0.040000000000000001
sS'n'
(lp820
g103
a(iomma_geom
subFace
p821
(dp822
S'V'
F0
sg8
(lp823
I77
aI24
aI30
asg10
F0.16
sS'i'
I79
sS'c'
(F0
F0.12466256879728632
F0.58705674327081203
tp824
sg12
g13
(g14
g15
NtRp825
(dp826
g18
F0.01
sg19
F0.040000000000000001
sS'F'
F0.040000000000000001
sS'k'
F0.059999999999999998
sg20
F0.40000000000000002
sg21
F1
sg22
I4
sbsg23
F1.6000000000000001
sg24
F0.040000000000000001
sS'n'
(lp827
g716
ag89
ag814
asg369
F0
sg370
F0
sS'U'
F0
sS'F'
F0.08937500000000001
sg371
F1.8442931518999324
sS'v'
(lp828
g13
(g373
g15
NtRp829
(dp830
S'y'
F0.5
sS'x'
F0.64549722888113248
sS'z'
F-0.57735026414368162
sbag13
(g373
g15
NtRp831
(dp832
S'y'
F0.85065080835203999
sS'x'
F0.49112347465486023
sS'z'
F-0.18759247024589748
sS'i'
I1
sbag13
(g373
g15
NtRp833
(dp834
S'y'
F0.5
sS'x'
F0.8660254037844386
sS'z'
F6.7698444320124675e-09
sbasg380
F1.8442931518999324
sg381
F0.82482324365853765
sg382
I-1
sg383
F0.82482324365853765
sg384
g13
(g373
g15
NtRp835
(dp836
S'y'
F0.6534615590031112
sS'x'
F0.70713083284817213
sS'z'
F-0.27009993732075155
sbsbag777
asg369
F0
sg370
F0
sS'U'
F0
sS'F'
F0.058749999999999997
sg371
F2.0645803834028382
sS'v'
(lp837
g808
ag831
ag13
(g373
g15
NtRp838
(dp839
S'y'
F0.5
sS'x'
F0.64549722888113248
sS'z'
F-0.57735026414368162
sbasg380
F2.0645803834028382
sg381
F0.52359877924222609
sg382
I-1
sg383
F0.52359877924222609
sg384
g13
(g373
g15
NtRp840
(dp841
S'y'
F0.7625749184717856
sS'x'
F0.44027283816196572
sS'z'
F-0.47396130822521509
sbsbag770
asg369
F0
sg370
F0
sS'U'
F0
sS'F'
F0.058125000000000003
sg371
F2.4118649934542553
sS'v'
(lp842
g808
ag838
ag810
asg380
F2.4118649934542553
sg381
F0.52359878316721509
sg382
I-1
sg383
F0.52359878316721509
sg384
g13
(g373
g15
NtRp843
(dp844
S'y'
F0.57735026918962573
sS'x'
F0.33333333915988772
sS'z'
F-0.74535598989421548
sbsbasg369
F0
sg370
F0
sS'U'
F0
sS'F'
F0.059374999999999997
sg371
F2.5223307431759969
sS'v'
(lp845
g838
ag766
ag810
asg380
F2.5223307431759969
sg381
F1.0562350158053078
sg382
I-1
sg383
F1.0562350158053078
sg384
g13
(g373
g15
NtRp846
(dp847
S'y'
F0.28566248371567449
sS'x'
F0.50527310145307269
sS'z'
F-0.81430709093399478
sbsbasg369
F0
sg370
F0
sS'U'
F0
sS'F'
F0.088749999999999996
sg371
F2.2274195323097521
sS'v'
(lp848
g13
(g373
g15
NtRp849
(dp850
S'y'
F0
sS'x'
F0.93417236175204499
sS'z'
F-0.35682208247053099
sbag766
ag829
asg380
F2.2274195323097521
sg381
F1.346008828916899
sg382
I-1
sg383
F1.346008828916899
sg384
g13
(g373
g15
NtRp851
(dp852
S'y'
F0.1765491242470002
sS'x'
F0.77213109613927922
sS'z'
F-0.61044572002953112
sbsbag821
asg369
F0
sg370
F0
sS'U'
F0
sS'F'
F0.088125000000000009
sg371
F1.9106332290133554
sS'v'
(lp853
g849
ag829
ag833
asg380
F1.9106332290133554
sg381
F1.1826568124707064
sg382
I-1
sg383
F1.1826568124707064
sg384
g13
(g373
g15
NtRp854
(dp855
S'y'
F0.35682208977308988
sS'x'
F0.87267799885567932
sS'z'
F-0.33333332651148462
sbsbag229
asg369
F0
sg370
F0
sS'U'
F0
sS'F'
F0.087499999999999994
sg371
F1.6305866174815224
sS'v'
(lp856
g705
ag849
ag833
asg380
F1.6305866174815224
sg381
F1.3929958390514094
sg382
I-1
sg383
F1.3929958390514094
sg384
g13
(g373
g15
NtRp857
(dp858
S'y'
F0.1765491242470002
sS'x'
F0.98247635379019371
sS'z'
F-0.059754673212590981
sbsbag737
asg369
F0
sg370
F0
sS'U'
F0
sS'F'
F0.076874999999999999
sg371
F1.6305866174815224
sS'v'
(lp859
g761
ag705
ag756
asg380
F1.6305866174815224
sg381
F1.7485968145383837
sg382
I-1
sg383
F1.7485968145383837
sg384
g13
(g373
g15
NtRp860
(dp861
S'y'
F-0.1765491242470002
sS'x'
F0.98247635379019371
sS'z'
F-0.059754673212590981
sbsbag250
asg369
F0
sg370
F0
sS'U'
F0
sS'F'
F0.066250000000000003
sg371
F1.2972994884835658
sS'v'
(lp862
g13
(g373
g15
NtRp863
(dp864
S'y'
F-0.5
sS'x'
F0.8660254037844386
sS'z'
F6.7698444320124675e-09
sbag705
ag674
asg380
F1.2972994884835658
sg381
F1.8720207940174483
sg382
I-1
sg383
F1.8720207940174483
sg384
g13
(g373
g15
NtRp865
(dp866
S'y'
F-0.28566248371567449
sS'x'
F0.91947972375024944
sS'z'
F0.27009995003619891
sbsbag271
asg369
F0
sg370
F0
sS'U'
F0
sS'F'
F0.065625000000000003
sg371
F1.2309594111607804
sS'v'
(lp867
g863
ag674
ag676
asg380
F1.2309594111607804
sg381
F2.2298543643137667
sg382
I-1
sg383
F2.2298543643137667
sg384
g13
(g373
g15
NtRp868
(dp869
S'y'
F-0.57735026918962573
sS'x'
F0.74535598989421548
sS'z'
F0.33333333915988772
sbsbag201
ag744
asg369
F0
sg370
F0
sS'U'
F0
sS'F'
F0.065000000000000002
sg371
F1.5110060233700615
sS'v'
(lp870
g752
ag863
ag676
asg380
F1.5110060233700615
sg381
F2.4401933905227273
sg382
I-1
sg383
F2.4401933905227273
sg384
g13
(g373
g15
NtRp871
(dp872
S'y'
F-0.7625749184717856
sS'x'
F0.64413420280822786
sS'z'
F0.059754685928038329
sbsbag464
ag194
asg369
F0
sg370
F0
sS'U'
F0
sS'F'
F0.067500000000000004
sg371
F1.5110060257647608
sS'v'
(lp873
g752
ag472
ag476
asg380
F1.5110060257647608
sg381
F2.7957943662579918
sg382
I-1
sg383
F2.7957943662579918
sg384
g13
(g373
g15
NtRp874
(dp875
S'y'
F-0.93912404271878569
sS'x'
F0.33834214958063319
sS'z'
F0.05975468353761812
sbsbag485
ag187
asg369
F0
sg370
F0
sS'U'
F0
sS'F'
F0.070000000000000007
sg371
F1.8442931559170193
sS'v'
(lp876
g752
ag537
ag532
asg380
F1.8442931559170193
sg381
F2.9192183424245117
sg382
I-1
sg383
F2.9192183424245117
sg384
g13
(g373
g15
NtRp877
(dp878
S'y'
F-0.93912404271878569
sS'x'
F0.21234889723630695
sS'z'
F-0.27009994118853264
sbsbag180
ag744
asg369
F0
sg370
F0
sS'U'
F0
sS'F'
F0.072500000000000009
sg371
F2.0645803834028382
sS'v'
(lp879
g752
ag523
ag13
(g373
g15
NtRp880
(dp881
S'y'
F-0.5
sS'x'
F0.64549722888113248
sS'z'
F-0.57735026414368162
sbasg380
F2.0645803834028382
sg381
F2.617993874347567
sg382
I-1
sg383
F2.617993874347567
sg384
g13
(g373
g15
NtRp882
(dp883
S'y'
F-0.7625749184717856
sS'x'
F0.44027283816196572
sS'z'
F-0.47396130822521509
sbsbag499
ag173
asg369
F0
sg370
F0
sS'U'
F0
sS'F'
F0.073124999999999996
sg371
F2.4118649934542553
sS'v'
(lp884
g523
ag525
ag880
asg380
F2.4118649934542553
sg381
F2.6179938704225783
sg382
I-1
sg383
F2.6179938704225783
sg384
g13
(g373
g15
NtRp885
(dp886
S'y'
F-0.57735026918962573
sS'x'
F0.33333333915988772
sS'z'
F-0.74535598989421548
sbsbag730
asg369
F0
sg370
F0
sS'U'
F0
sS'F'
F0.074374999999999997
sg371
F2.5223307431759969
sS'v'
(lp887
g525
ag766
ag880
asg380
F2.5223307431759969
sg381
F2.0853576377844854
sg382
I-1
sg383
F2.0853576377844854
sg384
g13
(g373
g15
NtRp888
(dp889
S'y'
F-0.28566248371567449
sS'x'
F0.50527310145307269
sS'z'
F-0.81430709093399478
sbsbag770
asg369
F0
sg370
F0
sS'U'
F0
sS'F'
F0.084999999999999992
sg371
F2.7943080357212331
sS'v'
(lp890
g766
ag514
ag13
(g373
g15
NtRp891
(dp892
S'y'
F0.3090169943749474
sS'x'
F0.17841105218910391
sS'z'
F-0.93417235756805106
sbasg380
F2.7943080357212331
sg381
F1.5707963267948966
sg382
I-1
sg383
F1.5707963267948966
sg384
g13
(g373
g15
NtRp893
(dp894
S'y'
F0
sS'x'
F0.3403457905673582
sS'z'
F-0.940300347146102
sbsbag506
ag152
asg369
F0
sg370
F0
sS'U'
F0
sS'F'
F0.085625000000000007
sg371
F3.1415926386886319
sS'v'
(lp895
g514
ag518
ag891
asg380
F3.1415926386886319
sg381
F1.5707963267948966
sg382
I-1
sg383
F1.5707963267948966
sg384
g13
(g373
g15
NtRp896
(dp897
S'y'
F0
sS'x'
F7.8171430318705881e-09
sS'z'
F-0.99999999999999989
sbsbag784
asg369
F0
sg370
F0
sS'U'
F0
sS'F'
F0.086875000000000008
sg371
F2.7943080474469477
sS'v'
(lp898
g518
ag801
ag891
asg380
F2.7943080474469477
sg381
F-0.52359875689471136
sg382
I-1
sg383
F-0.52359875689471136
sg384
g13
(g373
g15
NtRp899
(dp900
S'y'
F0.29474809433674326
sS'x'
F-0.17017288425798563
sS'z'
F-0.94030035113689958
sbsbag415
ag138
asg369
F0
sg370
F0
sS'U'
F0
sS'F'
F0.063750000000000001
sg371
F2.522330756715133
sS'v'
(lp901
g567
ag801
ag560
asg380
F2.522330756715133
sg381
F-1.0381600864162217
sg382
I-1
sg383
F-1.0381600864162217
sg384
g13
(g373
g15
NtRp902
(dp903
S'y'
F0.29474809433674326
sS'x'
F-0.50002750898413639
sS'z'
F-0.81430709879257335
sbsbag791
ag131
asg369
F0
sg370
F0
sS'U'
F0
sS'F'
F0.048750000000000002
sg371
F2.2274195452494578
sS'v'
(lp904
g13
(g373
g15
NtRp905
(dp906
S'y'
F0.80901699437494734
sS'x'
F-0.46708617669202851
sS'z'
F-0.35682209342436938
sbag801
ag579
asg380
F2.2274195452494578
sg381
F-0.74838627040435135
sg382
I-1
sg383
F-0.74838627040435135
sg384
g13
(g373
g15
NtRp907
(dp908
S'y'
F0.5804105780524178
sS'x'
F-0.5389615675255246
sS'z'
F-0.61044573027853
sbsbag571
asg369
F0
sg370
F0
sS'U'
F0
sS'F'
F0.048125000000000001
sg371
F1.9106332424290127
sS'v'
(lp909
g905
ag579
ag583
asg380
F1.9106332424290127
sg381
F-0.91173828927602651
sg382
I-1
sg383
F-0.91173828927602651
sg384
g13
(g373
g15
NtRp910
(dp911
S'y'
F0.57735026918962573
sS'x'
F-0.74535598989421548
sS'z'
F-0.33333333915988772
sbsbag362
asg369
F0
sg370
F0
sS'U'
F0
sS'F'
F0.047500000000000001
sg371
F1.6305866302197318
sS'v'
(lp912
g374
ag905
ag583
asg380
F1.6305866302197318
sg381
F-0.7013992630670659
sg382
I-1
sg383
F-0.7013992630670659
sg384
g13
(g373
g15
NtRp913
(dp914
S'y'
F0.7625749184717856
sS'x'
F-0.64413420280822786
sS'z'
F-0.059754685928038329
sbsbasg369
F0
sg370
F0
sS'U'
F0
sS'F'
F0.044999999999999998
sg371
F1.6305866278250325
sS'v'
(lp915
g374
ag13
(g373
g15
NtRp916
(dp917
S'y'
F1
sS'x'
F0
sS'z'
F0
sbag803
asg380
F1.6305866278250325
sg381
F-0.34579828733180129
sg382
I-1
sg383
F-0.34579828733180129
sg384
g13
(g373
g15
NtRp918
(dp919
S'y'
F0.93912404271878569
sS'x'
F-0.33834214958063319
sS'z'
F-0.05975468353761812
sbsbag103
ag791
asg369
F0
sg370
F0
sS'U'
F0
sS'F'
F0.045624999999999999
sg371
F1.9106332373046875
sS'v'
(lp920
g916
ag799
ag803
asg380
F1.9106332373046875
sg381
F-0.13545925748965049
sg382
I-1
sg383
F-0.13545925748965049
sg384
g13
(g373
g15
NtRp921
(dp922
S'y'
F0.93417235896271567
sS'x'
F-0.12732200114432068
sS'z'
F-0.33333333432862761
sbsbag814
asg369
F0
sg370
F0
sS'U'
F0
sS'F'
F0.046249999999999999
sg371
F1.8442931559170193
sS'v'
(lp923
g916
ag831
ag799
asg380
F1.8442931559170193
sg381
F0.22237431116528131
sg382
I-1
sg383
F0.22237431116528131
sg384
g13
(g373
g15
NtRp924
(dp925
S'y'
F0.93912404271878569
sS'x'
F0.21234889723630695
sS'z'
F-0.27009994118853264
sbsbag89
asg369
F0
sg370
F0
sS'U'
F0
sS'F'
F0.044374999999999998
sg371
F1.5110060257647608
sS'v'
(lp926
g13
(g373
g15
NtRp927
(dp928
S'y'
F0.80901699437494734
sS'x'
F0.46708617669202851
sS'z'
F0.35682209342436938
sbag831
ag13
(g373
g15
NtRp929
(dp930
S'y'
F1
sS'x'
F0
sS'z'
F0
sbasg380
F1.5110060257647608
sg381
F0.34579828733180129
sg382
I-1
sg383
F0.34579828733180129
sg384
g13
(g373
g15
NtRp931
(dp932
S'y'
F0.93912404271878569
sS'x'
F0.33834214958063319
sS'z'
F0.05975468353761812
sbsbag821
ag82
asg369
F0
sg370
F0
sS'U'
F0
sS'F'
F0.055000000000000007
sg371
F1.5110060233700615
sS'v'
(lp933
g831
ag13
(g373
g15
NtRp934
(dp935
S'y'
F0.80901699437494734
sS'x'
F0.46708617669202851
sS'z'
F0.35682209342436938
sbag712
asg380
F1.5110060233700615
sg381
F0.7013992630670659
sg382
I-1
sg383
F0.7013992630670659
sg384
g13
(g373
g15
NtRp936
(dp937
S'y'
F0.7625749184717856
sS'x'
F0.64413420280822786
sS'z'
F0.059754685928038329
sbsbag75
ag243
asg369
F0
sg370
F0
sS'U'
F0
sS'F'
F0.055625000000000001
sg371
F1.2309594111607804
sS'v'
(lp938
g934
ag710
ag712
asg380
F1.2309594111607804
sg381
F0.91173828927602651
sg382
I-1
sg383
F0.91173828927602651
sg384
g13
(g373
g15
NtRp939
(dp940
S'y'
F0.57735026918962573
sS'x'
F0.74535598989421548
sS'z'
F0.33333333915988772
sbsbag687
asg369
F0
sg370
F0
sS'U'
F0
sS'F'
F0.056250000000000001
sg371
F0.91417310834033516
sS'v'
(lp941
g934
ag697
ag710
asg380
F0.91417310834033516
sg381
F0.74838627040435135
sg382
I-1
sg383
F0.74838627040435135
sg384
g13
(g373
g15
NtRp942
(dp943
S'y'
F0.5804105780524178
sS'x'
F0.5389615675255246
sS'z'
F0.61044573027853
sbsbasg369
F0
sg370
F0
sS'U'
F0
sS'F'
F0.043750000000000004
sg371
F0.91417311135832124
sS'v'
(lp944
g13
(g373
g15
NtRp945
(dp946
S'y'
F0.80901699437494745
sS'x'
F-0.11026409422149756
sS'z'
F0.57735026832767555
sbag697
ag927
asg380
F0.91417311135832124
sg381
F0.29881127061962875
sg382
I-1
sg383
F0.29881127061962875
sg384
g13
(g373
g15
NtRp947
(dp948
S'y'
F0.756959702299418
sS'x'
F0.23316951429792993
sS'z'
F0.61044572788810969
sbsbag96
asg369
F0
sg370
F0
sS'U'
F0
sS'F'
F0.043125000000000004
sg371
F1.2309594162851056
sS'v'
(lp949
g945
ag927
ag929
asg380
F1.2309594162851056
sg381
F0.13545925748965049
sg382
I-1
sg383
F0.13545925748965049
sg384
g13
(g373
g15
NtRp950
(dp951
S'y'
F0.93417235896271567
sS'x'
F0.12732200114432068
sS'z'
F0.33333333432862761
sbsbag117
asg369
F0
sg370
F0
sS'U'
F0
sS'F'
F0.042500000000000003
sg371
F1.2972994976727739
sS'v'
(lp952
g374
ag945
ag929
asg380
F1.2972994976727739
sg381
F-0.22237431116528131
sg382
I-1
sg383
F-0.22237431116528131
sg384
g13
(g373
g15
NtRp953
(dp954
S'y'
F0.93912404271878569
sS'x'
F-0.21234889723630695
sS'z'
F0.27009994118853264
sbsbag362
asg369
F0
sg370
F0
sS'U'
F0
sS'F'
F0.040000000000000001
sg371
F1.0770122701869551
sS'v'
(lp955
g374
ag614
ag13
(g373
g15
NtRp956
(dp957
S'y'
F0.80901699437494745
sS'x'
F-0.11026409422149756
sS'z'
F0.57735026832767555
sbasg380
F1.0770122701869551
sg381
F-0.52359877924222609
sg382
I-1
sg383
F-0.52359877924222609
sg384
g13
(g373
g15
NtRp958
(dp959
S'y'
F0.7625749184717856
sS'x'
F-0.44027283816196572
sS'z'
F0.47396130822521509
sbsbag341
ag33
asg369
F0
sg370
F0
sS'U'
F0
sS'F'
F0.040625000000000001
sg371
F0.72972766013553803
sS'v'
(lp960
g614
ag616
ag956
asg380
F0.72972766013553803
sg381
F-0.52359878316721509
sg382
I-1
sg383
F-0.52359878316721509
sg384
g13
(g373
g15
NtRp961
(dp962
S'y'
F0.57735026918962573
sS'x'
F-0.33333333915988772
sS'z'
F0.74535598989421548
sbsbag68
ag26
asg369
F0
sg370
F0
sS'U'
F0
sS'F'
F0.041875000000000002
sg371
F0.61926190353825927
sS'v'
(lp963
g616
ag697
ag956
asg380
F0.61926190353825927
sg381
F0.0090374482448898428
sg382
I-1
sg383
F0.0090374482448898428
sg384
g13
(g373
g15
NtRp964
(dp965
S'y'
F0.5804105780524178
sS'x'
F0.0052455733722711704
sS'z'
F0.81430709492479214
sbsbag6
ag687
asg369
F0
sg370
F0
sS'U'
F0
sS'F'
F0.052500000000000005
sg371
F0.34728460614284562
sS'v'
(lp966
g697
ag621
ag663
asg380
F0.34728460614284562
sg381
F0.52359875689471136
sg382
I-1
sg383
F0.52359875689471136
sg384
g13
(g373
g15
NtRp967
(dp968
S'y'
F0.29474809433674326
sS'x'
F0.17017288425798563
sS'z'
F0.94030035113689958
sbsbag334
ag653
asg369
F0
sg370
F0
sS'U'
F0
sS'F'
F0.053125000000000006
sg371
F0
sS'v'
(lp969
g621
ag623
ag663
asg380
F0
sg381
F-1.5707963267948966
sg382
I-1
sg383
F-1.5707963267948966
sg384
g13
(g373
g15
NtRp970
(dp971
S'y'
F0
sS'x'
F-7.8171430318705881e-09
sS'z'
F1
sbsbaa(lp972
g26
ag334
ag653
aa(lp973
g341
ag33
ag264
ag687
ag285
ag327
aa(lp974
g40
ag257
ag292
aa(lp975
g68
ag348
ag75
ag320
ag271
ag278
aa(lp976
g47
ag250
ag299
aa(lp977
g54
ag61
ag362
ag355
ag82
ag243
ag313
ag306
ag215
ag222
ag464
ag457
aa(lp978
g96
ag387
ag89
ag394
ag208
ag201
aa(lp979
g117
ag124
ag450
ag229
ag443
ag236
aa(lp980
g110
ag103
ag131
ag571
ag194
ag485
ag744
ag737
ag436
ag401
ag716
ag821
aa(lp981
g814
ag408
ag187
aa(lp982
g791
ag138
ag492
ag730
ag429
ag723
aa(lp983
g777
ag415
ag180
aa(lp984
g784
ag770
ag145
ag422
ag499
ag173
aa(lp985
g166
ag506
ag152
aa(lp986
g159
aasS'numLEDs'
p987
I80
sS'px'
p988
(lp989
(lp990
I0
aI0
aI0
aag990
ag990
ag990
ag990
ag990
ag990
ag990
ag990
ag990
ag990
ag990
ag990
ag990
ag990
ag990
ag990
ag990
ag990
ag990
ag990
ag990
ag990
ag990
ag990
ag990
ag990
ag990
ag990
ag990
ag990
ag990
ag990
ag990
ag990
ag990
ag990
ag990
ag990
ag990
ag990
ag990
ag990
ag990
ag990
ag990
ag990
ag990
ag990
ag990
ag990
ag990
ag990
ag990
ag990
ag990
ag990
ag990
ag990
ag990
ag990
ag990
ag990
ag990
ag990
ag990
ag990
ag990
ag990
ag990
ag990
ag990
ag990
ag990
ag990
ag990
ag990
ag990
ag990
ag990
asS'chan'
p991
(lp992
g47
ag40
ag341
ag33
ag54
ag61
ag68
ag96
ag117
ag110
ag103
ag791
ag124
ag131
ag138
ag571
ag362
ag355
ag387
ag348
ag26
ag6
ag334
ag653
ag89
ag82
ag75
ag243
ag784
ag777
ag814
ag770
ag320
ag313
ag394
ag306
ag408
ag415
ag145
ag422
ag208
ag215
ag222
ag271
ag201
ag464
ag278
ag457
ag194
ag485
ag450
ag492
ag187
ag180
ag499
ag173
ag744
ag737
ag730
ag229
ag264
ag257
ag250
ag687
ag299
ag292
ag285
ag327
ag429
ag436
ag443
ag401
ag166
ag159
ag506
ag152
ag236
ag716
ag723
ag821
asS'ins'
p993
S''
sS'allv'
p994
(lp995
sS'fc'
p996
g13
(copc
Client
p997
g15
NtRp998
(dp999
S'_socket'
p1000
NsS'_port'
p1001
I7890
sS'_long_connection'
p1002
I01
sS'verbose'
p1003
I00
sS'_ip'
p1004
S'localhost'
p1005
sbsS'verts'
p1006
(lp1007
g374
ag831
ag481
ag752
ag661
ag697
ag516
ag801
ag766
ag705
ag581
ag609
asS'nfaces'
p1008
I19
sS'faces'
p1009
(lp1010
sS'facemap'
p1011
(lp1012
S'a'
aS'b'
aS'c'
aS'd'
aS'e'
aS'f'
aS'g'
aS'h'
aS'i'
aS'j'
aS'k'
aS'l'
aS'm'
aS'n'
aS'o'
aS'p'
aS'q'
aS'r'
aS's'
asS'cmap'
p1013
(lp1014
sS'boardmap'
p1015
(lp1016
S'x'
aS'x'
aS'x'
aS'x'
aS'x'
aS'x'
aS'x'
aS'x'
aS'x'
aS'x'
aS'x'
aS'x'
aS'x'
aS'x'
aS'x'
aS'x'
aS'x'
aS'x'
aS'x'
asS'lngs'
p1017
(lp1018
(lp1019
g499
aa(lp1020
g457
ag485
ag492
aa(lp1021
g457
ag485
aa(lp1022
g457
ag450
ag492
aa(lp1023
g450
ag492
aa(lp1024
g299
ag292
ag506
aa(lp1025
g429
ag443
aa(lp1026
g306
ag429
ag436
aa(lp1027
g306
ag429
ag443
aa(lp1028
g306
ag436
aa(lp1029
g422
ag327
aa(lp1030
g313
ag401
aa(lp1031
g320
ag394
ag401
aa(lp1032
g320
ag394
aa(lp1033
g320
ag313
ag401
aa(lp1034
g6
ag334
ag408
ag415
aa(lp1035
g387
ag348
aa(lp1036
g571
ag355
ag348
aa(lp1037
g571
ag355
aa(lp1038
g571
ag387
ag348
aa(lp1039
g341
ag145
aa(lp1040
g131
ag362
aa(lp1041
g131
ag138
ag362
aa(lp1042
g124
ag138
aa(lp1043
g124
ag138
ag362
aa(lp1044
g47
ag40
ag152
aa(lp1045
g117
ag791
aa(lp1046
g54
ag110
ag791
aa(lp1047
g54
ag110
aa(lp1048
g54
ag117
ag791
aa(lp1049
g33
ag784
aa(lp1050
g61
ag103
aa(lp1051
g61
ag68
ag103
aa(lp1052
g68
ag96
ag103
aa(lp1053
g68
ag96
aa(lp1054
g26
ag777
ag814
aa(lp1055
g89
ag75
aa(lp1056
g89
ag75
ag821
aa(lp1057
g82
ag821
aa(lp1058
g82
ag75
ag821
aa(lp1059
g770
ag687
aa(lp1060
g243
ag716
ag723
aa(lp1061
g243
ag716
aa(lp1062
g243
ag236
ag723
aa(lp1063
g236
ag723
aa(lp1064
g257
ag250
ag166
ag159
aa(lp1065
g730
ag229
aa(lp1066
g222
ag737
ag730
aa(lp1067
g222
ag737
aa(lp1068
g222
ag730
ag229
aa(lp1069
g173
ag264
aa(lp1070
g215
ag744
aa(lp1071
g215
ag271
ag744
aa(lp1072
g208
ag271
aa(lp1073
g208
ag271
ag744
aa(lp1074
g653
ag187
ag180
aa(lp1075
g201
ag278
aa(lp1076
g201
ag278
ag194
aa(lp1077
g464
ag194
aa(lp1078
g464
ag278
ag194
aa(lp1079
g285
aasS'qfaces'
p1080
(lp1081
(iomma_geom
Quadface
p1082
(dp1083
S'a'
S'A'
sS'f'
(lp1084
g47
ag40
ag341
ag33
asS'i'
I0
sS'vi'
p1085
(lp1086
I0
aI11
aI5
asS'v'
(lp1087
g374
ag609
ag697
ag614
ag616
ag956
asg380
F0.72972766013553803
sg381
F-0.52359878316721509
sg384
g13
(g373
g15
NtRp1088
(dp1089
S'y'
F0.57735026918962573
sS'x'
F-0.33333333915988772
sS'z'
F0.74535598989421548
sbsba(iomma_geom
Quadface
p1090
(dp1091
S'a'
S'x'
sS'f'
(lp1092
g54
ag61
ag68
ag96
asS'i'
I1
sg1085
(lp1093
I0
aI5
aI1
asS'v'
(lp1094
g374
ag697
ag831
ag945
ag927
ag929
asg380
F1.2309594162851059
sg381
F0.13545925748965049
sg384
g13
(g373
g15
NtRp1095
(dp1096
S'y'
F0.93417235896271567
sS'x'
F0.12732200114432068
sS'z'
F0.33333333432862755
sbsba(iomma_geom
Quadface
p1097
(dp1098
S'a'
S'x'
sS'f'
(lp1099
g117
ag110
ag103
ag791
asS'i'
I2
sg1085
(lp1100
I0
aI1
aI7
asS'v'
(lp1101
g374
ag831
ag801
ag916
ag799
ag803
asg380
F1.9106332373046875
sg381
F-0.13545925748965049
sg384
g13
(g373
g15
NtRp1102
(dp1103
S'y'
F0.93417235896271567
sS'x'
F-0.12732200114432068
sS'z'
F-0.33333333432862761
sbsba(iomma_geom
Quadface
p1104
(dp1105
S'a'
S'x'
sS'f'
(lp1106
g124
ag131
ag138
ag571
asS'i'
I3
sg1085
(lp1107
I0
aI7
aI10
asS'v'
(lp1108
g374
ag801
ag581
ag905
ag579
ag583
asg380
F1.9106332424290127
sg381
F-0.91173828927602651
sg384
g13
(g373
g15
NtRp1109
(dp1110
S'y'
F0.57735026918962573
sS'x'
F-0.74535598989421548
sS'z'
F-0.33333333915988772
sbsba(iomma_geom
Quadface
p1111
(dp1112
S'a'
S'x'
sS'f'
(lp1113
g362
ag355
ag387
ag348
asS'i'
I4
sg1085
(lp1114
I0
aI10
aI11
asS'v'
(lp1115
g374
ag581
ag609
ag376
ag601
ag378
asg380
F1.2309594245764379
sg381
F-1.1826568124707062
sg384
g13
(g373
g15
NtRp1116
(dp1117
S'y'
F0.35682208977308999
sS'x'
F-0.87267799885567932
sS'z'
F0.33333332651148467
sbsba(iomma_geom
Quadface
p1118
(dp1119
S'a'
S'x'
sS'f'
(lp1120
g26
ag6
ag334
ag653
asS'i'
I5
sg1085
(lp1121
I5
aI11
aI4
asS'v'
(lp1122
g697
ag609
ag661
ag621
ag623
ag663
asg380
F0
sg381
F-1.5707963267948966
sg384
g13
(g373
g15
NtRp1123
(dp1124
S'y'
F0
sS'x'
F-7.8171430383273614e-09
sS'z'
F1
sbsba(iomma_geom
Quadface
p1125
(dp1126
S'a'
S'x'
sS'f'
(lp1127
g89
ag82
ag75
ag243
asS'i'
I6
sg1085
(lp1128
I1
aI5
aI9
asS'v'
(lp1129
g831
ag697
ag705
ag934
ag710
ag712
asg380
F1.2309594111607804
sg381
F0.91173828927602651
sg384
g13
(g373
g15
NtRp1130
(dp1131
S'y'
F0.57735026918962573
sS'x'
F0.74535598989421548
sS'z'
F0.33333333915988772
sbsba(iomma_geom
Quadface
p1132
(dp1133
S'a'
S'x'
sS'f'
(lp1134
g784
ag777
ag814
ag770
asS'i'
I7
sg1085
(lp1135
I7
aI1
aI8
asS'v'
(lp1136
g801
ag831
ag766
ag808
ag838
ag810
asg380
F2.4118649934542553
sg381
F0.52359878316721509
sg384
g13
(g373
g15
NtRp1137
(dp1138
S'y'
F0.57735026918962573
sS'x'
F0.33333333915988772
sS'z'
F-0.74535598989421548
sbsba(iomma_geom
Quadface
p1139
(dp1140
S'a'
S'x'
sS'f'
(lp1141
g320
ag313
ag394
ag306
asS'i'
I8
sg1085
(lp1142
I11
aI10
aI2
asS'v'
(lp1143
g609
ag581
ag481
ag594
ag596
ag635
asg380
F1.2309594245764379
sg381
F-1.9589358411190869
sg384
g13
(g373
g15
NtRp1144
(dp1145
S'y'
F-0.35682208977309005
sS'x'
F-0.87267799885567943
sS'z'
F0.33333332651148462
sbsba(iomma_geom
Quadface
p1146
(dp1147
S'a'
S'x'
sS'f'
(lp1148
g408
ag415
ag145
ag422
asS'i'
I9
sg1085
(lp1149
I10
aI7
aI6
asS'v'
(lp1150
g581
ag801
ag516
ag567
ag560
ag562
asg380
F2.4118650051799699
sg381
F-1.5707963267948966
sg384
g13
(g373
g15
NtRp1151
(dp1152
S'y'
F0
sS'x'
F-0.66666666084011217
sS'z'
F-0.74535599771135863
sbsba(iomma_geom
Quadface
p1153
(dp1154
S'a'
S'x'
sS'f'
(lp1155
g208
ag215
ag222
ag271
asS'i'
I10
sg1085
(lp1156
I3
aI9
aI4
asS'v'
(lp1157
g752
ag705
ag661
ag863
ag674
ag676
asg380
F1.2309594111607804
sg381
F2.2298543643137667
sg384
g13
(g373
g15
NtRp1158
(dp1159
S'y'
F-0.57735026918962584
sS'x'
F0.74535598989421559
sS'z'
F0.33333333915988772
sbsba(iomma_geom
Quadface
p1160
(dp1161
S'a'
S'x'
sS'f'
(lp1162
g201
ag464
ag278
ag457
asS'i'
I11
sg1085
(lp1163
I3
aI4
aI2
asS'v'
(lp1164
g752
ag661
ag481
ag472
ag474
ag476
asg380
F1.2309594162851056
sg381
F3.0061333961001426
sg384
g13
(g373
g15
NtRp1165
(dp1166
S'y'
F-0.93417235896271567
sS'x'
F0.12732200114432068
sS'z'
F0.33333333432862766
sbsba(iomma_geom
Quadface
p1167
(dp1168
S'a'
S'x'
sS'f'
(lp1169
g194
ag485
ag450
ag492
asS'i'
I12
sg1085
(lp1170
I3
aI2
aI6
asS'v'
(lp1171
g752
ag481
ag516
ag537
ag530
ag532
asg380
F1.9106332373046875
sg381
F-3.0061333961001426
sg384
g13
(g373
g15
NtRp1172
(dp1173
S'y'
F-0.93417235896271567
sS'x'
F-0.12732200114432068
sS'z'
F-0.33333333432862761
sbsba(iomma_geom
Quadface
p1174
(dp1175
S'a'
S'x'
sS'f'
(lp1176
g187
ag180
ag499
ag173
asS'i'
I13
sg1085
(lp1177
I3
aI6
aI8
asS'v'
(lp1178
g752
ag516
ag766
ag523
ag525
ag880
asg380
F2.4118649934542553
sg381
F2.6179938704225783
sg384
g13
(g373
g15
NtRp1179
(dp1180
S'y'
F-0.57735026918962573
sS'x'
F0.33333333915988772
sS'z'
F-0.74535598989421548
sbsba(iomma_geom
Quadface
p1181
(dp1182
S'a'
S'x'
sS'f'
(lp1183
g744
ag737
ag730
ag229
asS'i'
I14
sg1085
(lp1184
I3
aI8
aI9
asS'v'
(lp1185
g752
ag766
ag705
ag754
ag761
ag756
asg380
F1.9106332290133554
sg381
F1.9589358411190869
sg384
g13
(g373
g15
NtRp1186
(dp1187
S'y'
F-0.35682208977308999
sS'x'
F0.87267799885567932
sS'z'
F-0.33333332651148467
sbsba(iomma_geom
Quadface
p1188
(dp1189
S'a'
S'x'
sS'f'
(lp1190
g264
ag257
ag250
ag687
asS'i'
I15
sg1085
(lp1191
I4
aI9
aI5
asS'v'
(lp1192
g661
ag705
ag697
ag681
ag695
ag683
asg380
F0.72972764840982318
sg381
F1.5707963267948966
sg384
g13
(g373
g15
NtRp1193
(dp1194
S'y'
F0
sS'x'
F0.66666666084011217
sS'z'
F0.74535599771135863
sbsba(iomma_geom
Quadface
p1195
(dp1196
S'a'
S'x'
sS'f'
(lp1197
g299
ag292
ag285
ag327
asS'i'
I16
sg1085
(lp1198
I2
aI4
aI11
asS'v'
(lp1199
g481
ag661
ag609
ag646
ag628
ag630
asg380
F0.72972766013553803
sg381
F-2.6179938704225783
sg384
g13
(g373
g15
NtRp1200
(dp1201
S'y'
F-0.57735026918962573
sS'x'
F-0.33333333915988772
sS'z'
F0.74535598989421548
sbsba(iomma_geom
Quadface
p1202
(dp1203
S'a'
S'x'
sS'f'
(lp1204
g429
ag436
ag443
ag401
asS'i'
I17
sg1085
(lp1205
I6
aI2
aI10
asS'v'
(lp1206
g516
ag481
ag581
ag545
ag547
ag552
asg380
F1.9106332424290127
sg381
F-2.2298543643137667
sg384
g13
(g373
g15
NtRp1207
(dp1208
S'y'
F-0.57735026918962573
sS'x'
F-0.74535598989421548
sS'z'
F-0.33333333915988772
sbsba(iomma_geom
Quadface
p1209
(dp1210
S'a'
S'x'
sS'f'
(lp1211
g166
ag159
ag506
ag152
asS'i'
I18
sg1085
(lp1212
I8
aI6
aI7
asS'v'
(lp1213
g766
ag516
ag801
ag514
ag518
ag891
asg380
F3.1415926535897931
sg381
F1.5707963267948966
sg384
g13
(g373
g15
NtRp1214
(dp1215
S'y'
F0
sS'x'
F7.8171430383273614e-09
sS'z'
F-1
sbsba(iomma_geom
Quadface
p1216
(dp1217
S'a'
S'x'
sS'f'
(lp1218
g236
ag716
ag723
ag821
asS'i'
I19
sg1085
(lp1219
I9
aI8
aI1
asS'v'
(lp1220
g705
ag766
ag831
ag849
ag829
ag833
asg380
F1.9106332290133554
sg381
F1.1826568124707062
sg384
g13
(g373
g15
NtRp1221
(dp1222
S'y'
F0.35682208977309005
sS'x'
F0.87267799885567943
sS'z'
F-0.33333332651148462
sbsbasb.