(i__main__
Ommahard
p1
(dp2
S'lats'
p3
(lp4
(lp5
(iomma_geom
subFace
p6
(dp7
S'V'
F0
sS'en'
p8
(lp9
I3
aI21
aI63
asS'F'
F0.052500000000000005
sS'i'
I20
sS'c'
(F0
F0.11163907025742835
F0.054106069567082332
tp10
sS'rc'
p11
ccopy_reg
_reconstructor
p12
(comma_geom
RDConstants
p13
c__builtin__
object
p14
NtRp15
(dp16
S'diffusion_rate_V'
p17
F0.01
sS'diffusion_rate_U'
p18
F0.040000000000000001
sS'F'
F0.040000000000000001
sS'k'
F0.059999999999999998
sS'reaction_rate'
p19
F0.40000000000000002
sS'del_X2'
p20
F1
sS'del_T'
p21
I4
sbsS'rcUV'
p22
F1.6000000000000001
sS'dcV'
p23
F0.040000000000000001
sS'n'
(lp24
(iomma_geom
subFace
p25
(dp26
S'V'
F0
sg8
(lp27
I1
aI6
aI20
asS'F'
F0.041875000000000002
sS'i'
I3
sS'c'
(F0
F0.22393485619655987
F0.12613066827048461
tp28
sg11
g12
(g13
g14
NtRp29
(dp30
g17
F0.01
sg18
F0.040000000000000001
sS'F'
F0.040000000000000001
sS'k'
F0.059999999999999998
sg19
F0.40000000000000002
sg20
F1
sg21
I4
sbsg22
F1.6000000000000001
sg23
F0.040000000000000001
sS'n'
(lp31
(iomma_geom
subFace
p32
(dp33
S'V'
F0
sg8
(lp34
I0
aI2
aI3
asS'F'
F0.040625000000000001
sS'i'
I1
sS'c'
(F0
F0.30408672398469638
F0.076021680996174096
tp35
sg11
g12
(g13
g14
NtRp36
(dp37
g17
F0.01
sg18
F0.040000000000000001
sS'F'
F0.040000000000000001
sS'k'
F0.059999999999999998
sg19
F0.40000000000000002
sg20
F1
sg21
I4
sbsg22
F1.6000000000000001
sg23
F0.040000000000000001
sS'n'
(lp38
(iomma_geom
subFace
p39
(dp40
S'V'
F0
sg8
(lp41
I1
aI4
aI16
asS'F'
F0.040000000000000001
sS'i'
I0
sS'c'
(F0
F0.40778637509275911
F0.15444591265073787
tp42
sg11
g12
(g13
g14
NtRp43
(dp44
g17
F0.01
sg18
F0.040000000000000001
sS'F'
F0.040000000000000001
sS'k'
F0.059999999999999998
sg19
F0.40000000000000002
sg20
F1
sg21
I4
sbsg22
F1.6000000000000001
sg23
F0.040000000000000001
sS'n'
(lp45
g32
a(iomma_geom
subFace
p46
(dp47
S'V'
F0
sg8
(lp48
I0
aI5
aI8
asS'F'
F0.042500000000000003
sS'i'
I4
sS'c'
(F0
F0.44350655454226839
F0.31470716462341197
tp49
sg11
g12
(g13
g14
NtRp50
(dp51
g17
F0.01
sg18
F0.040000000000000001
sS'F'
F0.040000000000000001
sS'k'
F0.059999999999999998
sg19
F0.40000000000000002
sg20
F1
sg21
I4
sbsg22
F1.6000000000000001
sg23
F0.040000000000000001
sS'n'
(lp52
g39
a(iomma_geom
subFace
p53
(dp54
S'V'
F0
sg8
(lp55
I4
aI6
aI7
asS'F'
F0.043125000000000004
sS'i'
I5
sS'c'
(F0
F0.38386023640061506
F0.38386023640061506
tp56
sg11
g12
(g13
g14
NtRp57
(dp58
g17
F0.01
sg18
F0.040000000000000001
sS'F'
F0.040000000000000001
sS'k'
F0.059999999999999998
sg19
F0.40000000000000002
sg20
F1
sg21
I4
sbsg22
F1.6000000000000001
sg23
F0.040000000000000001
sS'n'
(lp59
g46
a(iomma_geom
subFace
p60
(dp61
S'V'
F0
sg8
(lp62
I3
aI5
aI26
asS'F'
F0.043750000000000004
sS'i'
I6
sS'c'
(F0
F0.27331611170176628
F0.27331611170176628
tp63
sg11
g12
(g13
g14
NtRp64
(dp65
g17
F0.01
sg18
F0.040000000000000001
sS'F'
F0.040000000000000001
sS'k'
F0.059999999999999998
sg19
F0.40000000000000002
sg20
F1
sg21
I4
sbsg22
F1.6000000000000001
sg23
F0.040000000000000001
sS'n'
(lp66
g25
ag53
a(iomma_geom
subFace
p67
(dp68
S'V'
F0
sg8
(lp69
I6
aI25
aI63
asS'F'
F0.056250000000000001
sS'i'
I26
sS'c'
(F0
F0.12613066827048461
F0.22393485619655987
tp70
sg11
g12
(g13
g14
NtRp71
(dp72
g17
F0.01
sg18
F0.040000000000000001
sS'F'
F0.040000000000000001
sS'k'
F0.059999999999999998
sg19
F0.40000000000000002
sg20
F1
sg21
I4
sbsg22
F1.6000000000000001
sg23
F0.040000000000000001
sS'n'
(lp73
g60
a(iomma_geom
subFace
p74
(dp75
S'V'
F0
sg8
(lp76
I24
aI26
aI27
asS'F'
F0.055625000000000001
sS'i'
I25
sS'c'
(F0
F0.076021680996174096
F0.30408672398469638
tp77
sg11
g12
(g13
g14
NtRp78
(dp79
g17
F0.01
sg18
F0.040000000000000001
sS'F'
F0.040000000000000001
sS'k'
F0.059999999999999998
sg19
F0.40000000000000002
sg20
F1
sg21
I4
sbsg22
F1.6000000000000001
sg23
F0.040000000000000001
sS'n'
(lp80
(iomma_geom
subFace
p81
(dp82
S'V'
F0
sg8
(lp83
I7
aI79
aI25
asS'F'
F0.055000000000000007
sS'i'
I24
sS'c'
(F0
F0.1544459126507377
F0.40778637509275911
tp84
sg11
g12
(g13
g14
NtRp85
(dp86
g17
F0.01
sg18
F0.040000000000000001
sS'F'
F0.040000000000000001
sS'k'
F0.059999999999999998
sg19
F0.40000000000000002
sg20
F1
sg21
I4
sbsg22
F1.6000000000000001
sg23
F0.040000000000000001
sS'n'
(lp87
(iomma_geom
subFace
p88
(dp89
S'V'
F0
sg8
(lp90
I5
aI10
aI24
asS'F'
F0.044374999999999998
sS'i'
I7
sS'c'
(F0
F0.31470716462341197
F0.44350655454226839
tp91
sg11
g12
(g13
g14
NtRp92
(dp93
g17
F0.01
sg18
F0.040000000000000001
sS'F'
F0.040000000000000001
sS'k'
F0.059999999999999998
sg19
F0.40000000000000002
sg20
F1
sg21
I4
sbsg22
F1.6000000000000001
sg23
F0.040000000000000001
sS'n'
(lp94
g53
a(iomma_geom
subFace
p95
(dp96
S'V'
F0
sg8
(lp97
I7
aI9
aI30
asS'F'
F0.046249999999999999
sS'i'
I10
sS'c'
(F0
F0.39488136659505696
F0.55649344545773172
tp98
sg11
g12
(g13
g14
NtRp99
(dp100
g17
F0.01
sg18
F0.040000000000000001
sS'F'
F0.040000000000000001
sS'k'
F0.059999999999999998
sg19
F0.40000000000000002
sg20
F1
sg21
I4
sbsg22
F1.6000000000000001
sg23
F0.040000000000000001
sS'n'
(lp101
g88
a(iomma_geom
subFace
p102
(dp103
S'V'
F0
sg8
(lp104
I8
aI10
aI11
asS'F'
F0.045624999999999999
sS'i'
I9
sS'c'
(F0
F0.61613976359938505
F0.61613976359938505
tp105
sg11
g12
(g13
g14
NtRp106
(dp107
g17
F0.01
sg18
F0.040000000000000001
sS'F'
F0.040000000000000001
sS'k'
F0.059999999999999998
sg19
F0.40000000000000002
sg20
F1
sg21
I4
sbsg22
F1.6000000000000001
sg23
F0.040000000000000001
sS'n'
(lp108
(iomma_geom
subFace
p109
(dp110
S'V'
F0
sg8
(lp111
I4
aI9
aI12
asS'F'
F0.044999999999999998
sS'i'
I8
sS'c'
(F0
F0.55649344545773172
F0.39488136659505696
tp112
sg11
g12
(g13
g14
NtRp113
(dp114
g17
F0.01
sg18
F0.040000000000000001
sS'F'
F0.040000000000000001
sS'k'
F0.059999999999999998
sg19
F0.40000000000000002
sg20
F1
sg21
I4
sbsg22
F1.6000000000000001
sg23
F0.040000000000000001
sS'n'
(lp115
g46
ag102
a(iomma_geom
subFace
p116
(dp117
S'V'
F0
sg8
(lp118
I8
aI13
aI16
asS'F'
F0.047500000000000001
sS'i'
I12
sS'c'
(F0
F0.59221362490724094
F0.22429629671220638
tp119
sg11
g12
(g13
g14
NtRp120
(dp121
g17
F0.01
sg18
F0.040000000000000001
sS'F'
F0.040000000000000001
sS'k'
F0.059999999999999998
sg19
F0.40000000000000002
sg20
F1
sg21
I4
sbsg22
F1.6000000000000001
sg23
F0.040000000000000001
sS'n'
(lp122
g109
a(iomma_geom
subFace
p123
(dp124
S'V'
F0
sg8
(lp125
I12
aI14
aI15
asS'F'
F0.048125000000000001
sS'i'
I13
sS'c'
(F0
F0.69591327601530362
F0.1739783190038259
tp126
sg11
g12
(g13
g14
NtRp127
(dp128
g17
F0.01
sg18
F0.040000000000000001
sS'F'
F0.040000000000000001
sS'k'
F0.059999999999999998
sg19
F0.40000000000000002
sg20
F1
sg21
I4
sbsg22
F1.6000000000000001
sg23
F0.040000000000000001
sS'n'
(lp129
g116
a(iomma_geom
subFace
p130
(dp131
S'V'
F0
sg8
(lp132
I38
aI11
aI13
asS'F'
F0.048750000000000002
sS'i'
I14
sS'c'
(F0
F0.77606514380344027
F0.43711647606765652
tp133
sg11
g12
(g13
g14
NtRp134
(dp135
g17
F0.01
sg18
F0.040000000000000001
sS'F'
F0.040000000000000001
sS'k'
F0.059999999999999998
sg19
F0.40000000000000002
sg20
F1
sg21
I4
sbsg22
F1.6000000000000001
sg23
F0.040000000000000001
sS'n'
(lp136
(iomma_geom
subFace
p137
(dp138
S'V'
F0
sg8
(lp139
I75
aI37
aI14
asS'F'
F0.063750000000000001
sS'i'
I38
sS'c'
(F0
F0.88836092974257164
F0.43054566967007929
tp140
sg11
g12
(g13
g14
NtRp141
(dp142
g17
F0.01
sg18
F0.040000000000000001
sS'F'
F0.040000000000000001
sS'k'
F0.059999999999999998
sg19
F0.40000000000000002
sg20
F1
sg21
I4
sbsg22
F1.6000000000000001
sg23
F0.040000000000000001
sS'n'
(lp143
(iomma_geom
subFace
p144
(dp145
S'V'
F0
sg8
(lp146
I38
aI73
aI28
asS'F'
F0.086875000000000008
sS'i'
I75
sS'c'
(F0
F0.43054566967007968
F0.88836092974257164
tp147
sg11
g12
(g13
g14
NtRp148
(dp149
g17
F0.01
sg18
F0.040000000000000001
sS'F'
F0.040000000000000001
sS'k'
F0.059999999999999998
sg19
F0.40000000000000002
sg20
F1
sg21
I4
sbsg22
F1.6000000000000001
sg23
F0.040000000000000001
sS'n'
(lp150
g137
a(iomma_geom
subFace
p151
(dp152
S'V'
F0
sg8
(lp153
I72
aI74
aI75
asS'F'
F0.085625000000000007
sS'i'
I73
sS'c'
(F0.44193011820030748
F0
F0.88386023640061495
tp154
sg11
g12
(g13
g14
NtRp155
(dp156
g17
F0.01
sg18
F0.040000000000000001
sS'F'
F0.040000000000000001
sS'k'
F0.059999999999999998
sg19
F0.40000000000000002
sg20
F1
sg21
I4
sbsg22
F1.6000000000000001
sg23
F0.040000000000000001
sS'n'
(lp157
(iomma_geom
subFace
p158
(dp159
S'V'
F0
sg8
(lp160
I73
aI55
aI31
asS'F'
F0.084999999999999992
sS'i'
I72
sS'c'
(F0.38665805585088314
F0
F0.77331611170176628
tp161
sg11
g12
(g13
g14
NtRp162
(dp163
g17
F0.01
sg18
F0.040000000000000001
sS'F'
F0.040000000000000001
sS'k'
F0.059999999999999998
sg19
F0.40000000000000002
sg20
F1
sg21
I4
sbsg22
F1.6000000000000001
sg23
F0.040000000000000001
sS'n'
(lp164
g151
a(iomma_geom
subFace
p165
(dp166
S'V'
F0
sg8
(lp167
I72
aI53
aI58
asS'F'
F0.074374999999999997
sS'i'
I55
sS'c'
(F0.58715165065251151
F0
F0.69710792052698289
tp168
sg11
g12
(g13
g14
NtRp169
(dp170
g17
F0.01
sg18
F0.040000000000000001
sS'F'
F0.040000000000000001
sS'k'
F0.059999999999999998
sg19
F0.40000000000000002
sg20
F1
sg21
I4
sbsg22
F1.6000000000000001
sg23
F0.040000000000000001
sS'n'
(lp171
g158
a(iomma_geom
subFace
p172
(dp173
S'V'
F0
sg8
(lp174
I52
aI54
aI55
asS'F'
F0.073124999999999996
sS'i'
I53
sS'c'
(F0.69591327601530362
F0
F0.52193495701147774
tp175
sg11
g12
(g13
g14
NtRp176
(dp177
g17
F0.01
sg18
F0.040000000000000001
sS'F'
F0.040000000000000001
sS'k'
F0.059999999999999998
sg19
F0.40000000000000002
sg20
F1
sg21
I4
sbsg22
F1.6000000000000001
sg23
F0.040000000000000001
sS'n'
(lp178
(iomma_geom
subFace
p179
(dp180
S'V'
F0
sg8
(lp181
I48
aI53
aI56
asS'F'
F0.072500000000000009
sS'i'
I52
sS'c'
(F0.59221362490724094
F0
F0.36791732819503431
tp182
sg11
g12
(g13
g14
NtRp183
(dp184
g17
F0.01
sg18
F0.040000000000000001
sS'F'
F0.040000000000000001
sS'k'
F0.059999999999999998
sg19
F0.40000000000000002
sg20
F1
sg21
I4
sbsg22
F1.6000000000000001
sg23
F0.040000000000000001
sS'n'
(lp185
(iomma_geom
subFace
p186
(dp187
S'V'
F0
sg8
(lp188
I44
aI49
aI52
asS'F'
F0.070000000000000007
sS'i'
I48
sS'c'
(F0.55649344545773172
F0
F0.16161207886267501
tp189
sg11
g12
(g13
g14
NtRp190
(dp191
g17
F0.01
sg18
F0.040000000000000001
sS'F'
F0.040000000000000001
sS'k'
F0.059999999999999998
sg19
F0.40000000000000002
sg20
F1
sg21
I4
sbsg22
F1.6000000000000001
sg23
F0.040000000000000001
sS'n'
(lp192
(iomma_geom
subFace
p193
(dp194
S'V'
F0
sg8
(lp195
I40
aI45
aI48
asS'F'
F0.067500000000000004
sS'i'
I44
sS'c'
(F0.44350655454226839
F0
F0.12879938991885662
tp196
sg11
g12
(g13
g14
NtRp197
(dp198
g17
F0.01
sg18
F0.040000000000000001
sS'F'
F0.040000000000000001
sS'k'
F0.059999999999999998
sg19
F0.40000000000000002
sg20
F1
sg21
I4
sbsg22
F1.6000000000000001
sg23
F0.040000000000000001
sS'n'
(lp199
(iomma_geom
subFace
p200
(dp201
S'V'
F0
sg8
(lp202
I41
aI44
aI56
asS'F'
F0.065000000000000002
sS'i'
I40
sS'c'
(F0.40778637509275911
F0
F0.25334046244202107
tp203
sg11
g12
(g13
g14
NtRp204
(dp205
g17
F0.01
sg18
F0.040000000000000001
sS'F'
F0.040000000000000001
sS'k'
F0.059999999999999998
sg19
F0.40000000000000002
sg20
F1
sg21
I4
sbsg22
F1.6000000000000001
sg23
F0.040000000000000001
sS'n'
(lp206
(iomma_geom
subFace
p207
(dp208
S'V'
F0
sg8
(lp209
I40
aI42
aI43
asS'F'
F0.065625000000000003
sS'i'
I41
sS'c'
(F0.30408672398469638
F0
F0.22806504298852229
tp210
sg11
g12
(g13
g14
NtRp211
(dp212
g17
F0.01
sg18
F0.040000000000000001
sS'F'
F0.040000000000000001
sS'k'
F0.059999999999999998
sg19
F0.40000000000000002
sg20
F1
sg21
I4
sbsg22
F1.6000000000000001
sg23
F0.040000000000000001
sS'n'
(lp213
g200
a(iomma_geom
subFace
p214
(dp215
S'V'
F0
sg8
(lp216
I41
aI59
aI62
asS'F'
F0.066250000000000003
sS'i'
I42
sS'c'
(F0.25511628715638718
F0
F0.30289207947301711
tp217
sg11
g12
(g13
g14
NtRp218
(dp219
g17
F0.01
sg18
F0.040000000000000001
sS'F'
F0.040000000000000001
sS'k'
F0.059999999999999998
sg19
F0.40000000000000002
sg20
F1
sg21
I4
sbsg22
F1.6000000000000001
sg23
F0.040000000000000001
sS'n'
(lp220
g207
a(iomma_geom
subFace
p221
(dp222
S'V'
F0
sg8
(lp223
I42
aI76
aI57
asS'F'
F0.076874999999999999
sS'i'
I59
sS'c'
(F0.27420729786893966
F0
F0.404764263195518
tp224
sg11
g12
(g13
g14
NtRp225
(dp226
g17
F0.01
sg18
F0.040000000000000001
sS'F'
F0.040000000000000001
sS'k'
F0.059999999999999998
sg19
F0.40000000000000002
sg20
F1
sg21
I4
sbsg22
F1.6000000000000001
sg23
F0.040000000000000001
sS'n'
(lp227
g214
a(iomma_geom
subFace
p228
(dp229
S'V'
F0
sg8
(lp230
I27
aI77
aI59
asS'F'
F0.087499999999999994
sS'i'
I76
sS'c'
(F0.13055696532657832
F0
F0.404764263195518
tp231
sg11
g12
(g13
g14
NtRp232
(dp233
g17
F0.01
sg18
F0.040000000000000001
sS'F'
F0.040000000000000001
sS'k'
F0.059999999999999998
sg19
F0.40000000000000002
sg20
F1
sg21
I4
sbsg22
F1.6000000000000001
sg23
F0.040000000000000001
sS'n'
(lp234
(iomma_geom
subFace
p235
(dp236
S'V'
F0
sg8
(lp237
I76
aI25
aI62
asS'F'
F0.056875000000000002
sS'i'
I27
sS'c'
(F0.047775792316629963
F0
F0.30289207947301716
tp238
sg11
g12
(g13
g14
NtRp239
(dp240
g17
F0.01
sg18
F0.040000000000000001
sS'F'
F0.040000000000000001
sS'k'
F0.059999999999999998
sg19
F0.40000000000000002
sg20
F1
sg21
I4
sbsg22
F1.6000000000000001
sg23
F0.040000000000000001
sS'n'
(lp241
g228
ag74
a(iomma_geom
subFace
p242
(dp243
S'V'
F0
sg8
(lp244
I42
aI27
aI61
asS'F'
F0.078750000000000001
sS'i'
I62
sS'c'
(F0.1133419441491169
F0
F0.2266838882982338
tp245
sg11
g12
(g13
g14
NtRp246
(dp247
g17
F0.01
sg18
F0.040000000000000001
sS'F'
F0.040000000000000001
sS'k'
F0.059999999999999998
sg19
F0.40000000000000002
sg20
F1
sg21
I4
sbsg22
F1.6000000000000001
sg23
F0.040000000000000001
sS'n'
(lp248
g214
ag235
a(iomma_geom
subFace
p249
(dp250
S'V'
F0
sg8
(lp251
I60
aI62
aI63
asS'F'
F0.078125
sS'i'
I61
sS'c'
(F0.058069881799692517
F0
F0.11613976359938503
tp252
sg11
g12
(g13
g14
NtRp253
(dp254
g17
F0.01
sg18
F0.040000000000000001
sS'F'
F0.040000000000000001
sS'k'
F0.059999999999999998
sg19
F0.40000000000000002
sg20
F1
sg21
I4
sbsg22
F1.6000000000000001
sg23
F0.040000000000000001
sS'n'
(lp255
(iomma_geom
subFace
p256
(dp257
S'V'
F0
sg8
(lp258
I43
aI23
aI61
asS'F'
F0.077499999999999999
sS'i'
I60
sS'c'
(F0.11163907025742835
F0
F0.057533000690346017
tp259
sg11
g12
(g13
g14
NtRp260
(dp261
g17
F0.01
sg18
F0.040000000000000001
sS'F'
F0.040000000000000001
sS'k'
F0.059999999999999998
sg19
F0.40000000000000002
sg20
F1
sg21
I4
sbsg22
F1.6000000000000001
sg23
F0.040000000000000001
sS'n'
(lp262
(iomma_geom
subFace
p263
(dp264
S'V'
F0
sg8
(lp265
I41
aI46
aI60
asS'F'
F0.066875000000000004
sS'i'
I43
sS'c'
(F0.22393485619655987
F0
F0.097804187926075259
tp266
sg11
g12
(g13
g14
NtRp267
(dp268
g17
F0.01
sg18
F0.040000000000000001
sS'F'
F0.040000000000000001
sS'k'
F0.059999999999999998
sg19
F0.40000000000000002
sg20
F1
sg21
I4
sbsg22
F1.6000000000000001
sg23
F0.040000000000000001
sS'n'
(lp269
g207
a(iomma_geom
subFace
p270
(dp271
S'V'
F0
sg8
(lp272
I66
aI43
aI45
asS'F'
F0.068750000000000006
sS'i'
I46
sS'c'
(F0.27331611170176628
F0
F0
tp273
sg11
g12
(g13
g14
NtRp274
(dp275
g17
F0.01
sg18
F0.040000000000000001
sS'F'
F0.040000000000000001
sS'k'
F0.059999999999999998
sg19
F0.40000000000000002
sg20
F1
sg21
I4
sbsg22
F1.6000000000000001
sg23
F0.040000000000000001
sS'n'
(lp276
(iomma_geom
subFace
p277
(dp278
S'V'
F0
sg8
(lp279
I65
aI46
aI23
asS'F'
F0.081250000000000003
sS'i'
I66
sS'c'
(F0.22393485619655987
F0.097804187926075273
F0
tp280
sg11
g12
(g13
g14
NtRp281
(dp282
g17
F0.01
sg18
F0.040000000000000001
sS'F'
F0.040000000000000001
sS'k'
F0.059999999999999998
sg19
F0.40000000000000002
sg20
F1
sg21
I4
sbsg22
F1.6000000000000001
sg23
F0.040000000000000001
sS'n'
(lp283
(iomma_geom
subFace
p284
(dp285
S'V'
F0
sg8
(lp286
I64
aI66
aI67
asS'F'
F0.080625000000000002
sS'i'
I65
sS'c'
(F0.30408672398469638
F0.22806504298852229
F0
tp287
sg11
g12
(g13
g14
NtRp288
(dp289
g17
F0.01
sg18
F0.040000000000000001
sS'F'
F0.040000000000000001
sS'k'
F0.059999999999999998
sg19
F0.40000000000000002
sg20
F1
sg21
I4
sbsg22
F1.6000000000000001
sg23
F0.040000000000000001
sS'n'
(lp290
(iomma_geom
subFace
p291
(dp292
S'V'
F0
sg8
(lp293
I65
aI35
aI47
asS'F'
F0.080000000000000002
sS'i'
I64
sS'c'
(F0.40778637509275911
F0.25334046244202107
F0
tp294
sg11
g12
(g13
g14
NtRp295
(dp296
g17
F0.01
sg18
F0.040000000000000001
sS'F'
F0.040000000000000001
sS'k'
F0.059999999999999998
sg19
F0.40000000000000002
sg20
F1
sg21
I4
sbsg22
F1.6000000000000001
sg23
F0.040000000000000001
sS'n'
(lp297
g284
a(iomma_geom
subFace
p298
(dp299
S'V'
F0
sg8
(lp300
I64
aI33
aI70
asS'F'
F0.061874999999999999
sS'i'
I35
sS'c'
(F0.5
F0.40997416755264915
F0
tp301
sg11
g12
(g13
g14
NtRp302
(dp303
g17
F0.01
sg18
F0.040000000000000001
sS'F'
F0.040000000000000001
sS'k'
F0.059999999999999998
sg19
F0.40000000000000002
sg20
F1
sg21
I4
sbsg22
F1.6000000000000001
sg23
F0.040000000000000001
sS'n'
(lp304
g291
a(iomma_geom
subFace
p305
(dp306
S'V'
F0
sg8
(lp307
I32
aI34
aI35
asS'F'
F0.060624999999999998
sS'i'
I33
sS'c'
(F0.42420964539907757
F0.5
F0
tp308
sg11
g12
(g13
g14
NtRp309
(dp310
g17
F0.01
sg18
F0.040000000000000001
sS'F'
F0.040000000000000001
sS'k'
F0.059999999999999998
sg19
F0.40000000000000002
sg20
F1
sg21
I4
sbsg22
F1.6000000000000001
sg23
F0.040000000000000001
sS'n'
(lp311
(iomma_geom
subFace
p312
(dp313
S'V'
F0
sg8
(lp314
I33
aI67
aI19
asS'F'
F0.059999999999999998
sS'i'
I32
sS'c'
(F0.27420729786893977
F0.404764263195518
F0
tp315
sg11
g12
(g13
g14
NtRp316
(dp317
g17
F0.01
sg18
F0.040000000000000001
sS'F'
F0.040000000000000001
sS'k'
F0.059999999999999998
sg19
F0.40000000000000002
sg20
F1
sg21
I4
sbsg22
F1.6000000000000001
sg23
F0.040000000000000001
sS'n'
(lp318
g305
a(iomma_geom
subFace
p319
(dp320
S'V'
F0
sg8
(lp321
I32
aI65
aI22
asS'F'
F0.081875000000000003
sS'i'
I67
sS'c'
(F0.25511628715638696
F0.30289207947301716
F0
tp322
sg11
g12
(g13
g14
NtRp323
(dp324
g17
F0.01
sg18
F0.040000000000000001
sS'F'
F0.040000000000000001
sS'k'
F0.059999999999999998
sg19
F0.40000000000000002
sg20
F1
sg21
I4
sbsg22
F1.6000000000000001
sg23
F0.040000000000000001
sS'n'
(lp325
g312
ag284
a(iomma_geom
subFace
p326
(dp327
S'V'
F0
sg8
(lp328
I2
aI67
aI21
asS'F'
F0.053750000000000006
sS'i'
I22
sS'c'
(F0.1133419441491169
F0.2266838882982338
F0
tp329
sg11
g12
(g13
g14
NtRp330
(dp331
g17
F0.01
sg18
F0.040000000000000001
sS'F'
F0.040000000000000001
sS'k'
F0.059999999999999998
sg19
F0.40000000000000002
sg20
F1
sg21
I4
sbsg22
F1.6000000000000001
sg23
F0.040000000000000001
sS'n'
(lp332
(iomma_geom
subFace
p333
(dp334
S'V'
F0
sg8
(lp335
I1
aI19
aI22
asS'F'
F0.041250000000000002
sS'i'
I2
sS'c'
(F0.04777579231663022
F0.30289207947301711
F0
tp336
sg11
g12
(g13
g14
NtRp337
(dp338
g17
F0.01
sg18
F0.040000000000000001
sS'F'
F0.040000000000000001
sS'k'
F0.059999999999999998
sg19
F0.40000000000000002
sg20
F1
sg21
I4
sbsg22
F1.6000000000000001
sg23
F0.040000000000000001
sS'n'
(lp339
g32
a(iomma_geom
subFace
p340
(dp341
S'V'
F0
sg8
(lp342
I32
aI2
aI17
asS'F'
F0.051875000000000004
sS'i'
I19
sS'c'
(F0.13055696532657832
F0.404764263195518
F0
tp343
sg11
g12
(g13
g14
NtRp344
(dp345
g17
F0.01
sg18
F0.040000000000000001
sS'F'
F0.040000000000000001
sS'k'
F0.059999999999999998
sg19
F0.40000000000000002
sg20
F1
sg21
I4
sbsg22
F1.6000000000000001
sg23
F0.040000000000000001
sS'n'
(lp346
g312
ag333
a(iomma_geom
subFace
p347
(dp348
S'V'
F0
sg8
(lp349
I16
aI18
aI19
asS'F'
F0.050625000000000003
sS'i'
I17
sS'c'
(F0.075790354600922427
F0.5
F0
tp350
sg11
g12
(g13
g14
NtRp351
(dp352
g17
F0.01
sg18
F0.040000000000000001
sS'F'
F0.040000000000000001
sS'k'
F0.059999999999999998
sg19
F0.40000000000000002
sg20
F1
sg21
I4
sbsg22
F1.6000000000000001
sg23
F0.040000000000000001
sS'n'
(lp353
(iomma_geom
subFace
p354
(dp355
S'V'
F0
sg8
(lp356
I0
aI12
aI17
asS'F'
F0.050000000000000003
sS'i'
I16
sS'c'
(F0
F0.5
F0.090025832447350629
tp357
sg11
g12
(g13
g14
NtRp358
(dp359
g17
F0.01
sg18
F0.040000000000000001
sS'F'
F0.040000000000000001
sS'k'
F0.059999999999999998
sg19
F0.40000000000000002
sg20
F1
sg21
I4
sbsg22
F1.6000000000000001
sg23
F0.040000000000000001
sS'n'
(lp360
g39
ag116
ag347
asS'nextU'
p361
F0
sS'nextV'
p362
F0
sS'U'
F0
sS'th'
p363
F1.5707963267948966
sS'v'
(lp364
g12
(comma_geom
Vertex
p365
g14
NtRp366
(dp367
S'y'
F0.85065080835203999
sS'x'
F-0.52573111211913359
sS'z'
F0
sS'i'
I0
sbag12
(g365
g14
NtRp368
(dp369
S'y'
F0.50000000000000011
sS'x'
F-0.80901699437494745
sS'z'
F-0.30901699437494745
sbag12
(g365
g14
NtRp370
(dp371
S'y'
F0.50000000000000011
sS'x'
F-0.80901699437494745
sS'z'
F0.30901699437494745
sbasS'lat'
p372
F1.5707963267948966
sS'lng'
p373
F-0.85864788862999608
sS'dcU'
p374
F0.16
sS'ph'
p375
F-0.85864788862999608
sS'nv'
p376
g12
(g365
g14
NtRp377
(dp378
S'y'
F0.65346155900311131
sS'x'
F-0.75695970229941789
sS'z'
F0
sbsba(iomma_geom
subFace
p379
(dp380
S'V'
F0
sg8
(lp381
I34
aI15
aI17
asS'F'
F0.051250000000000004
sS'i'
I18
sS'c'
(F0.19199365783333705
F0.59523573680448205
F0
tp382
sg11
g12
(g13
g14
NtRp383
(dp384
g17
F0.01
sg18
F0.040000000000000001
sS'F'
F0.040000000000000001
sS'k'
F0.059999999999999998
sg19
F0.40000000000000002
sg20
F1
sg21
I4
sbsg22
F1.6000000000000001
sg23
F0.040000000000000001
sS'n'
(lp385
(iomma_geom
subFace
p386
(dp387
S'V'
F0
sg8
(lp388
I33
aI71
aI18
asS'F'
F0.061249999999999999
sS'i'
I34
sS'c'
(F0.40324207897114517
F0.59523573680448205
F0
tp389
sg11
g12
(g13
g14
NtRp390
(dp391
g17
F0.01
sg18
F0.040000000000000001
sS'F'
F0.040000000000000001
sS'k'
F0.059999999999999998
sg19
F0.40000000000000002
sg20
F1
sg21
I4
sbsg22
F1.6000000000000001
sg23
F0.040000000000000001
sS'n'
(lp392
g305
a(iomma_geom
subFace
p393
(dp394
S'V'
F0
sg8
(lp395
I34
aI36
aI69
asS'F'
F0.084375000000000006
sS'i'
I71
sS'c'
(F0.58715165065251085
F0.69710792052698289
F0
tp396
sg11
g12
(g13
g14
NtRp397
(dp398
g17
F0.01
sg18
F0.040000000000000001
sS'F'
F0.040000000000000001
sS'k'
F0.059999999999999998
sg19
F0.40000000000000002
sg20
F1
sg21
I4
sbsg22
F1.6000000000000001
sg23
F0.040000000000000001
sS'n'
(lp399
g386
a(iomma_geom
subFace
p400
(dp401
S'V'
F0
sg8
(lp402
I37
aI71
aI15
asS'F'
F0.0625
sS'i'
I36
sS'c'
(F0.38665805585088314
F0.77331611170176628
F0
tp403
sg11
g12
(g13
g14
NtRp404
(dp405
g17
F0.01
sg18
F0.040000000000000001
sS'F'
F0.040000000000000001
sS'k'
F0.059999999999999998
sg19
F0.40000000000000002
sg20
F1
sg21
I4
sbsg22
F1.6000000000000001
sg23
F0.040000000000000001
sS'n'
(lp406
(iomma_geom
subFace
p407
(dp408
S'V'
F0
sg8
(lp409
I36
aI38
aI39
asS'F'
F0.063125000000000001
sS'i'
I37
sS'c'
(F0.44193011820030748
F0.88386023640061495
F0
tp410
sg11
g12
(g13
g14
NtRp411
(dp412
g17
F0.01
sg18
F0.040000000000000001
sS'F'
F0.040000000000000001
sS'k'
F0.059999999999999998
sg19
F0.40000000000000002
sg20
F1
sg21
I4
sbsg22
F1.6000000000000001
sg23
F0.040000000000000001
sS'n'
(lp413
g400
ag137
a(iomma_geom
subFace
p414
(dp415
S'V'
F0
sg8
(lp416
I68
aI37
aI74
asS'F'
F0.064375000000000002
sS'i'
I39
sS'c'
(F0.88836092974257164
F0.45781526007249224
F0
tp417
sg11
g12
(g13
g14
NtRp418
(dp419
g17
F0.01
sg18
F0.040000000000000001
sS'F'
F0.040000000000000001
sS'k'
F0.059999999999999998
sg19
F0.40000000000000002
sg20
F1
sg21
I4
sbsg22
F1.6000000000000001
sg23
F0.040000000000000001
sS'n'
(lp420
(iomma_geom
subFace
p421
(dp422
S'V'
F0
sg8
(lp423
I69
aI39
aI51
asS'F'
F0.082500000000000004
sS'i'
I68
sS'c'
(F0.77606514380344027
F0.33894866773578386
F0
tp424
sg11
g12
(g13
g14
NtRp425
(dp426
g17
F0.01
sg18
F0.040000000000000001
sS'F'
F0.040000000000000001
sS'k'
F0.059999999999999998
sg19
F0.40000000000000002
sg20
F1
sg21
I4
sbsg22
F1.6000000000000001
sg23
F0.040000000000000001
sS'n'
(lp427
(iomma_geom
subFace
p428
(dp429
S'V'
F0
sg8
(lp430
I68
aI70
aI71
asS'F'
F0.083125000000000004
sS'i'
I69
sS'c'
(F0.69591327601530362
F0.52193495701147774
F0
tp431
sg11
g12
(g13
g14
NtRp432
(dp433
g17
F0.01
sg18
F0.040000000000000001
sS'F'
F0.040000000000000001
sS'k'
F0.059999999999999998
sg19
F0.40000000000000002
sg20
F1
sg21
I4
sbsg22
F1.6000000000000001
sg23
F0.040000000000000001
sS'n'
(lp434
g421
a(iomma_geom
subFace
p435
(dp436
S'V'
F0
sg8
(lp437
I35
aI69
aI50
asS'F'
F0.083749999999999991
sS'i'
I70
sS'c'
(F0.59221362490724094
F0.36791732819503437
F0
tp438
sg11
g12
(g13
g14
NtRp439
(dp440
g17
F0.01
sg18
F0.040000000000000001
sS'F'
F0.040000000000000001
sS'k'
F0.059999999999999998
sg19
F0.40000000000000002
sg20
F1
sg21
I4
sbsg22
F1.6000000000000001
sg23
F0.040000000000000001
sS'n'
(lp441
g298
ag428
a(iomma_geom
subFace
p442
(dp443
S'V'
F0
sg8
(lp444
I70
aI47
aI49
asS'F'
F0.071250000000000008
sS'i'
I50
sS'c'
(F0.55649344545773172
F0.16161207886267476
F0
tp445
sg11
g12
(g13
g14
NtRp446
(dp447
g17
F0.01
sg18
F0.040000000000000001
sS'F'
F0.040000000000000001
sS'k'
F0.059999999999999998
sg19
F0.40000000000000002
sg20
F1
sg21
I4
sbsg22
F1.6000000000000001
sg23
F0.040000000000000001
sS'n'
(lp448
g435
a(iomma_geom
subFace
p449
(dp450
S'V'
F0
sg8
(lp451
I64
aI45
aI50
asS'F'
F0.069375000000000006
sS'i'
I47
sS'c'
(F0.44350655454226839
F0.12879938991885642
F0
tp452
sg11
g12
(g13
g14
NtRp453
(dp454
g17
F0.01
sg18
F0.040000000000000001
sS'F'
F0.040000000000000001
sS'k'
F0.059999999999999998
sg19
F0.40000000000000002
sg20
F1
sg21
I4
sbsg22
F1.6000000000000001
sg23
F0.040000000000000001
sS'n'
(lp455
g291
a(iomma_geom
subFace
p456
(dp457
S'V'
F0
sg8
(lp458
I44
aI46
aI47
asS'F'
F0.068125000000000005
sS'i'
I45
sS'c'
(F0.38386023640061506
F0
F0
tp459
sg11
g12
(g13
g14
NtRp460
(dp461
g17
F0.01
sg18
F0.040000000000000001
sS'F'
F0.040000000000000001
sS'k'
F0.059999999999999998
sg19
F0.40000000000000002
sg20
F1
sg21
I4
sbsg22
F1.6000000000000001
sg23
F0.040000000000000001
sS'n'
(lp462
g193
ag270
ag449
asg361
F0
sg362
F0
sS'U'
F0
sg363
F1.2059324986814135
sS'v'
(lp463
g12
(g365
g14
NtRp464
(dp465
S'y'
F-0.80901699437494734
sS'x'
F0.3090169943749474
sS'z'
F0.5
sbag12
(g365
g14
NtRp466
(dp467
S'y'
F-0.80901699437494734
sS'x'
F-0.3090169943749474
sS'z'
F0.5
sbag12
(g365
g14
NtRp468
(dp469
S'y'
F-1
sS'x'
F0
sS'z'
F0
sbasg372
F1.2059324986814135
sg373
F3.1415926535897931
sg374
F0.16
sg375
F3.1415926535897931
sg376
g12
(g365
g14
NtRp470
(dp471
S'y'
F-0.93417235896271567
sS'x'
F0
sS'z'
F0.35682208977308988
sbsbag442
asg361
F0
sg362
F0
sS'U'
F0
sg363
F1.3933169335689113
sS'v'
(lp472
g466
ag12
(g365
g14
NtRp473
(dp474
S'y'
F-0.85065080835203999
sS'x'
F-0.52573111211913359
sS'z'
F0
sS'i'
I2
sbag468
asg372
F1.3933169335689113
sg373
F-2.8374744746423666
sg374
F0.16
sg375
F-2.8374744746423666
sg376
g12
(g365
g14
NtRp475
(dp476
S'y'
F-0.93912404271878569
sS'x'
F-0.29474809433674326
sS'z'
F0.1765491242470002
sbsba(iomma_geom
subFace
p477
(dp478
S'V'
F0
sg8
(lp479
I48
aI50
aI51
asS'F'
F0.070625000000000007
sS'i'
I49
sS'c'
(F0.61613976359938505
F0
F0
tp480
sg11
g12
(g13
g14
NtRp481
(dp482
g17
F0.01
sg18
F0.040000000000000001
sS'F'
F0.040000000000000001
sS'k'
F0.059999999999999998
sg19
F0.40000000000000002
sg20
F1
sg21
I4
sbsg22
F1.6000000000000001
sg23
F0.040000000000000001
sS'n'
(lp483
g186
ag442
a(iomma_geom
subFace
p484
(dp485
S'V'
F0
sg8
(lp486
I68
aI49
aI54
asS'F'
F0.071874999999999994
sS'i'
I51
sS'c'
(F0.72668388829823372
F0
F0
tp487
sg11
g12
(g13
g14
NtRp488
(dp489
g17
F0.01
sg18
F0.040000000000000001
sS'F'
F0.040000000000000001
sS'k'
F0.059999999999999998
sg19
F0.40000000000000002
sg20
F1
sg21
I4
sbsg22
F1.6000000000000001
sg23
F0.040000000000000001
sS'n'
(lp490
g421
ag477
a(iomma_geom
subFace
p491
(dp492
S'V'
F0
sg8
(lp493
I74
aI51
aI53
asS'F'
F0.07375000000000001
sS'i'
I54
sS'c'
(F0.77606514380344027
F0
F0.33894866773578375
tp494
sg11
g12
(g13
g14
NtRp495
(dp496
g17
F0.01
sg18
F0.040000000000000001
sS'F'
F0.040000000000000001
sS'k'
F0.059999999999999998
sg19
F0.40000000000000002
sg20
F1
sg21
I4
sbsg22
F1.6000000000000001
sg23
F0.040000000000000001
sS'n'
(lp497
(iomma_geom
subFace
p498
(dp499
S'V'
F0
sg8
(lp500
I39
aI73
aI54
asS'F'
F0.086249999999999993
sS'i'
I74
sS'c'
(F0.88836092974257164
F0
F0.45781526007249235
tp501
sg11
g12
(g13
g14
NtRp502
(dp503
g17
F0.01
sg18
F0.040000000000000001
sS'F'
F0.040000000000000001
sS'k'
F0.059999999999999998
sg19
F0.40000000000000002
sg20
F1
sg21
I4
sbsg22
F1.6000000000000001
sg23
F0.040000000000000001
sS'n'
(lp504
g414
ag151
ag491
asg361
F0
sg362
F0
sS'U'
F0
sg363
F2.7908681706154614
sS'v'
(lp505
g12
(g365
g14
NtRp506
(dp507
S'y'
F-0.30901699437494745
sS'x'
F0.50000000000000011
sS'z'
F-0.80901699437494745
sbag12
(g365
g14
NtRp508
(dp509
S'y'
F-0.52573111211913359
sS'x'
F0
sS'z'
F-0.85065080835203999
sS'i'
I6
sbag12
(g365
g14
NtRp510
(dp511
S'y'
F0
sS'x'
F0
sS'z'
F-1
sbasg372
F2.7908681706154614
sg373
F2.6019212169055232
sg374
F0.16
sg375
F2.6019212169055232
sg376
g12
(g365
g14
NtRp512
(dp513
S'y'
F-0.29474809433674332
sS'x'
F0.17654912424700023
sS'z'
F-0.93912404271878569
sbsbag484
ag172
asg361
F0
sg362
F0
sS'U'
F0
sg363
F2.4380805544799942
sS'v'
(lp514
g12
(g365
g14
NtRp515
(dp516
S'y'
F-0.80901699437494734
sS'x'
F0.3090169943749474
sS'z'
F-0.5
sbag508
ag12
(g365
g14
NtRp517
(dp518
S'y'
F-0.30901699437494745
sS'x'
F0.50000000000000011
sS'z'
F-0.80901699437494745
sbasg372
F2.4380805544799942
sg373
F2.6842261326625731
sg374
F0.16
sg375
F2.6842261326625731
sg376
g12
(g365
g14
NtRp519
(dp520
S'y'
F-0.5804105780524178
sS'x'
F0.28566248371567449
sS'z'
F-0.7625749184717856
sbsbasg361
F0
sg362
F0
sS'U'
F0
sg363
F2.2829447649597969
sS'v'
(lp521
g12
(g365
g14
NtRp522
(dp523
S'y'
F-0.80901699437494734
sS'x'
F-0.3090169943749474
sS'z'
F-0.5
sbag508
ag12
(g365
g14
NtRp524
(dp525
S'y'
F-0.80901699437494734
sS'x'
F0.3090169943749474
sS'z'
F-0.5
sbasg372
F2.2829447649597969
sg373
F3.1415926535897931
sg374
F0.16
sg375
F3.1415926535897931
sg376
g12
(g365
g14
NtRp526
(dp527
S'y'
F-0.756959702299418
sS'x'
F0
sS'z'
F-0.6534615590031112
sbsbasg361
F0
sg362
F0
sS'U'
F0
sg363
F1.9356601549083798
sS'v'
(lp528
g12
(g365
g14
NtRp529
(dp530
S'y'
F-1
sS'x'
F0
sS'z'
F0
sbag522
ag524
asg372
F1.9356601549083798
sg373
F3.1415926535897931
sg374
F0.16
sg375
F3.1415926535897931
sg376
g12
(g365
g14
NtRp531
(dp532
S'y'
F-0.93417235896271567
sS'x'
F0
sS'z'
F-0.35682208977308988
sbsbasg361
F0
sg362
F0
sS'U'
F0
sg363
F1.7482757200208821
sS'v'
(lp533
g529
ag473
ag522
asg372
F1.7482757200208821
sg373
F-2.8374744746423666
sg374
F0.16
sg375
F-2.8374744746423666
sg376
g12
(g365
g14
NtRp534
(dp535
S'y'
F-0.93912404271878569
sS'x'
F-0.29474809433674326
sS'z'
F-0.1765491242470002
sbsbasg361
F0
sg362
F0
sS'U'
F0
sg363
F1.8604939733643695
sS'v'
(lp536
g12
(g365
g14
NtRp537
(dp538
S'y'
F-0.80901699437494734
sS'x'
F-0.3090169943749474
sS'z'
F-0.5
sbag473
ag12
(g365
g14
NtRp539
(dp540
S'y'
F-0.50000000000000011
sS'x'
F-0.80901699437494745
sS'z'
F-0.30901699437494745
sbasg372
F1.8604939733643695
sg373
F-2.4910130165728601
sg374
F0.16
sg375
F-2.4910130165728601
sg376
g12
(g365
g14
NtRp541
(dp542
S'y'
F-0.7625749184717856
sS'x'
F-0.5804105780524178
sS'z'
F-0.28566248371567449
sbsbag393
asg361
F0
sg362
F0
sS'U'
F0
sg363
F2.1862760354652839
sS'v'
(lp543
g537
ag539
ag12
(g365
g14
NtRp544
(dp545
S'y'
F-0.30901699437494745
sS'x'
F-0.50000000000000011
sS'z'
F-0.80901699437494745
sbasg372
F2.1862760354652839
sg373
F-2.3561944901923448
sg374
F0.16
sg375
F-2.3561944901923448
sg376
g12
(g365
g14
NtRp546
(dp547
S'y'
F-0.57735026918962573
sS'x'
F-0.57735026918962573
sS'z'
F-0.57735026918962573
sbsbag414
ag484
asg361
F0
sg362
F0
sS'U'
F0
sg363
F2.4380805544799942
sS'v'
(lp548
g508
ag537
ag544
asg372
F2.4380805544799942
sg373
F-2.6842261326625731
sg374
F0.16
sg375
F-2.6842261326625731
sg376
g12
(g365
g14
NtRp549
(dp550
S'y'
F-0.5804105780524178
sS'x'
F-0.28566248371567449
sS'z'
F-0.7625749184717856
sbsbag407
ag498
asg361
F0
sg362
F0
sS'U'
F0
sg363
F2.7908681706154614
sS'v'
(lp551
g12
(g365
g14
NtRp552
(dp553
S'y'
F0
sS'x'
F0
sS'z'
F-1
sbag508
ag12
(g365
g14
NtRp554
(dp555
S'y'
F-0.30901699437494745
sS'x'
F-0.50000000000000011
sS'z'
F-0.80901699437494745
sbasg372
F2.7908681706154614
sg373
F-2.6019212169055232
sg374
F0.16
sg375
F-2.6019212169055232
sg376
g12
(g365
g14
NtRp556
(dp557
S'y'
F-0.29474809433674332
sS'x'
F-0.17654912424700023
sS'z'
F-0.93912404271878569
sbsbasg361
F0
sg362
F0
sS'U'
F0
sg363
F2.7767288254763098
sS'v'
(lp558
g12
(g365
g14
NtRp559
(dp560
S'y'
F0.30901699437494745
sS'x'
F-0.50000000000000011
sS'z'
F-0.80901699437494745
sbag552
ag554
asg372
F2.7767288254763098
sg373
F-1.5707963267948966
sg374
F0.16
sg375
F-1.5707963267948966
sg376
g12
(g365
g14
NtRp561
(dp562
S'y'
F0
sS'x'
F-0.35682208977308999
sS'z'
F-0.93417235896271567
sbsbag393
a(iomma_geom
subFace
p563
(dp564
S'V'
F0
sg8
(lp565
I36
aI13
aI18
asS'F'
F0.049375000000000002
sS'i'
I15
sS'c'
(F0.10995626987447203
F0.69710792052698289
F0
tp566
sg11
g12
(g13
g14
NtRp567
(dp568
g17
F0.01
sg18
F0.040000000000000001
sS'F'
F0.040000000000000001
sS'k'
F0.059999999999999998
sg19
F0.40000000000000002
sg20
F1
sg21
I4
sbsg22
F1.6000000000000001
sg23
F0.040000000000000001
sS'n'
(lp569
g400
ag123
ag379
asg361
F0
sg362
F0
sS'U'
F0
sg363
F2.1900291218868269
sS'v'
(lp570
g12
(g365
g14
NtRp571
(dp572
S'y'
F0.30901699437494745
sS'x'
F-0.50000000000000011
sS'z'
F-0.80901699437494745
sbag12
(g365
g14
NtRp573
(dp574
S'y'
F0
sS'x'
F-0.85065080835203999
sS'z'
F-0.52573111211913359
sS'i'
I10
sbag12
(g365
g14
NtRp575
(dp576
S'y'
F0.50000000000000011
sS'x'
F-0.80901699437494745
sS'z'
F-0.30901699437494745
sbasg372
F2.1900291218868269
sg373
F-1.2123741804683095
sg374
F0.16
sg375
F-1.2123741804683095
sg376
g12
(g365
g14
NtRp577
(dp578
S'y'
F0.28566248371567449
sS'x'
F-0.7625749184717856
sS'z'
F-0.58041057805241769
sbsbasg361
F0
sg362
F0
sS'U'
F0
sg363
F2.4294442154248928
sS'v'
(lp579
g573
ag559
ag554
asg372
F2.4294442154248928
sg373
F-1.5707963267948966
sg374
F0.16
sg375
F-1.5707963267948966
sg376
g12
(g365
g14
NtRp580
(dp581
S'y'
F0
sS'x'
F-0.65346155900311131
sS'z'
F-0.75695970229941789
sbsbag428
asg361
F0
sg362
F0
sS'U'
F0
sg363
F2.1900291218868269
sS'v'
(lp582
g539
ag573
ag544
asg372
F2.1900291218868269
sg373
F-1.9292184731214839
sg374
F0.16
sg375
F-1.9292184731214839
sg376
g12
(g365
g14
NtRp583
(dp584
S'y'
F-0.28566248371567454
sS'x'
F-0.7625749184717856
sS'z'
F-0.5804105780524178
sbsbag379
asg361
F0
sg362
F0
sS'U'
F0
sg363
F1.8699882178990683
sS'v'
(lp585
g12
(g365
g14
NtRp586
(dp587
S'y'
F0
sS'x'
F-1
sS'z'
F0
sbag573
ag12
(g365
g14
NtRp588
(dp589
S'y'
F-0.50000000000000011
sS'x'
F-0.80901699437494745
sS'z'
F-0.30901699437494745
sbasg372
F1.8699882178990683
sg373
F-1.7566208796831957
sg374
F0.16
sg375
F-1.7566208796831957
sg376
g12
(g365
g14
NtRp590
(dp591
S'y'
F-0.17654912424700023
sS'x'
F-0.93912404271878569
sS'z'
F-0.29474809433674332
sbsbag563
ag347
asg361
F0
sg362
F0
sS'U'
F0
sg363
F1.8699882178990683
sS'v'
(lp592
g368
ag573
ag12
(g365
g14
NtRp593
(dp594
S'y'
F0
sS'x'
F-1
sS'z'
F0
sbasg372
F1.8699882178990683
sg373
F-1.3849717739065976
sg374
F0.16
sg375
F-1.3849717739065976
sg376
g12
(g365
g14
NtRp595
(dp596
S'y'
F0.17654912424700023
sS'x'
F-0.93912404271878569
sS'z'
F-0.29474809433674332
sbsbag340
asg361
F0
sg362
F0
sS'U'
F0
sg363
F1.5707963267948966
sS'v'
(lp597
g368
ag593
ag370
asg372
F1.5707963267948966
sg373
F-1.2059324986814133
sg374
F0.16
sg375
F-1.2059324986814133
sg376
g12
(g365
g14
NtRp598
(dp599
S'y'
F0.35682208977308999
sS'x'
F-0.93417235896271567
sS'z'
F0
sbsbasg361
F0
sg362
F0
sS'U'
F0
sg363
F1.2716044356907248
sS'v'
(lp600
g593
ag12
(g365
g14
NtRp601
(dp602
S'y'
F0
sS'x'
F-0.85065080835203999
sS'z'
F0.52573111211913359
sS'i'
I11
sbag370
asg372
F1.2716044356907248
sg373
F-1.3849717739065976
sg374
F0.16
sg375
F-1.3849717739065976
sg376
g12
(g365
g14
NtRp603
(dp604
S'y'
F0.17654912424700023
sS'x'
F-0.93912404271878569
sS'z'
F0.29474809433674332
sbsbag326
asg361
F0
sg362
F0
sS'U'
F0
sg363
F0.95156353170296637
sS'v'
(lp605
g12
(g365
g14
NtRp606
(dp607
S'y'
F0.50000000000000011
sS'x'
F-0.80901699437494745
sS'z'
F0.30901699437494745
sbag601
ag12
(g365
g14
NtRp608
(dp609
S'y'
F0.30901699437494745
sS'x'
F-0.50000000000000011
sS'z'
F0.80901699437494745
sbasg372
F0.95156353170296637
sg373
F-1.2123741804683092
sg374
F0.16
sg375
F-1.2123741804683092
sg376
g12
(g365
g14
NtRp610
(dp611
S'y'
F0.28566248371567454
sS'x'
F-0.7625749184717856
sS'z'
F0.5804105780524178
sbsbag319
a(iomma_geom
subFace
p612
(dp613
S'V'
F0
sg8
(lp614
I20
aI22
aI23
asS'F'
F0.053125000000000006
sS'i'
I21
sS'c'
(F0.058069881799692517
F0.11613976359938503
F0
tp615
sg11
g12
(g13
g14
NtRp616
(dp617
g17
F0.01
sg18
F0.040000000000000001
sS'F'
F0.040000000000000001
sS'k'
F0.059999999999999998
sg19
F0.40000000000000002
sg20
F1
sg21
I4
sbsg22
F1.6000000000000001
sg23
F0.040000000000000001
sS'n'
(lp618
g6
ag326
a(iomma_geom
subFace
p619
(dp620
S'V'
F0
sg8
(lp621
I66
aI21
aI60
asS'F'
F0.054375000000000007
sS'i'
I23
sS'c'
(F0.11163907025742835
F0.057533000690346003
F0
tp622
sg11
g12
(g13
g14
NtRp623
(dp624
g17
F0.01
sg18
F0.040000000000000001
sS'F'
F0.040000000000000001
sS'k'
F0.059999999999999998
sg19
F0.40000000000000002
sg20
F1
sg21
I4
sbsg22
F1.6000000000000001
sg23
F0.040000000000000001
sS'n'
(lp625
g277
ag612
ag256
asg361
F0
sg362
F0
sS'U'
F0
sg363
F0.35072448297433167
sS'v'
(lp626
g12
(g365
g14
NtRp627
(dp628
S'y'
F-0.30901699437494745
sS'x'
F-0.50000000000000011
sS'z'
F0.80901699437494745
sbag12
(g365
g14
NtRp629
(dp630
S'y'
F-0.52573111211913359
sS'x'
F0
sS'z'
F0.85065080835203999
sS'i'
I4
sbag12
(g365
g14
NtRp631
(dp632
S'y'
F0
sS'x'
F0
sS'z'
F1
sbasg372
F0.35072448297433167
sg373
F-2.6019212169055232
sg374
F0.16
sg375
F-2.6019212169055232
sg376
g12
(g365
g14
NtRp633
(dp634
S'y'
F-0.29474809433674332
sS'x'
F-0.17654912424700023
sS'z'
F0.93912404271878569
sbsbasg361
F0
sg362
F0
sS'U'
F0
sg363
F0.36486382811348328
sS'v'
(lp635
g12
(g365
g14
NtRp636
(dp637
S'y'
F0.30901699437494745
sS'x'
F-0.50000000000000011
sS'z'
F0.80901699437494745
sbag627
ag631
asg372
F0.36486382811348328
sg373
F-1.5707963267948966
sg374
F0.16
sg375
F-1.5707963267948966
sg376
g12
(g365
g14
NtRp638
(dp639
S'y'
F0
sS'x'
F-0.35682208977308999
sS'z'
F0.93417235896271567
sbsbasg361
F0
sg362
F0
sS'U'
F0
sg363
F0.71214843816490059
sS'v'
(lp640
g636
ag601
ag627
asg372
F0.71214843816490059
sg373
F-1.5707963267948966
sg374
F0.16
sg375
F-1.5707963267948966
sg376
g12
(g365
g14
NtRp641
(dp642
S'y'
F0
sS'x'
F-0.65346155900311131
sS'z'
F0.75695970229941789
sbsbasg361
F0
sg362
F0
sS'U'
F0
sg363
F0.95156353170296648
sS'v'
(lp643
g12
(g365
g14
NtRp644
(dp645
S'y'
F-0.30901699437494745
sS'x'
F-0.50000000000000011
sS'z'
F0.80901699437494745
sbag601
ag12
(g365
g14
NtRp646
(dp647
S'y'
F-0.50000000000000011
sS'x'
F-0.80901699437494745
sS'z'
F0.30901699437494745
sbasg372
F0.95156353170296648
sg373
F-1.9292184731214839
sg374
F0.16
sg375
F-1.9292184731214839
sg376
g12
(g365
g14
NtRp648
(dp649
S'y'
F-0.28566248371567449
sS'x'
F-0.7625749184717856
sS'z'
F0.58041057805241769
sbsbag340
asg361
F0
sg362
F0
sS'U'
F0
sg363
F1.2716044356907248
sS'v'
(lp650
g601
ag586
ag12
(g365
g14
NtRp651
(dp652
S'y'
F-0.50000000000000011
sS'x'
F-0.80901699437494745
sS'z'
F0.30901699437494745
sbasg372
F1.2716044356907248
sg373
F-1.7566208796831957
sg374
F0.16
sg375
F-1.7566208796831957
sg376
g12
(g365
g14
NtRp653
(dp654
S'y'
F-0.17654912424700023
sS'x'
F-0.93912404271878569
sS'z'
F0.29474809433674332
sbsbag386
ag298
asg361
F0
sg362
F0
sS'U'
F0
sg363
F1.5707963267948966
sS'v'
(lp655
g586
ag588
ag651
asg372
F1.5707963267948966
sg373
F-1.9356601549083798
sg374
F0.16
sg375
F-1.9356601549083798
sg376
g12
(g365
g14
NtRp656
(dp657
S'y'
F-0.35682208977308999
sS'x'
F-0.93417235896271567
sS'z'
F0
sbsbag435
asg361
F0
sg362
F0
sS'U'
F0
sg363
F1.5707963267948966
sS'v'
(lp658
g588
ag473
ag651
asg372
F1.5707963267948966
sg373
F-2.2829447649597974
sg374
F0.16
sg375
F-2.2829447649597974
sg376
g12
(g365
g14
NtRp659
(dp660
S'y'
F-0.65346155900311131
sS'x'
F-0.75695970229941789
sS'z'
F0
sbsbag449
asg361
F0
sg362
F0
sS'U'
F0
sg363
F1.2810986802254238
sS'v'
(lp661
g473
ag12
(g365
g14
NtRp662
(dp663
S'y'
F-0.80901699437494734
sS'x'
F-0.3090169943749474
sS'z'
F0.5
sbag646
asg372
F1.2810986802254238
sg373
F-2.4910130165728601
sg374
F0.16
sg375
F-2.4910130165728601
sg376
g12
(g365
g14
NtRp664
(dp665
S'y'
F-0.7625749184717856
sS'x'
F-0.5804105780524178
sS'z'
F0.28566248371567449
sbsbag277
ag319
asg361
F0
sg362
F0
sS'U'
F0
sg363
F0.9553166181245093
sS'v'
(lp666
g662
ag644
ag646
asg372
F0.9553166181245093
sg373
F-2.3561944901923448
sg374
F0.16
sg375
F-2.3561944901923448
sg376
g12
(g365
g14
NtRp667
(dp668
S'y'
F-0.57735026918962573
sS'x'
F-0.57735026918962573
sS'z'
F0.57735026918962573
sbsbag270
ag619
asg361
F0
sg362
F0
sS'U'
F0
sg363
F0.70351209910979928
sS'v'
(lp669
g662
ag629
ag644
asg372
F0.70351209910979928
sg373
F-2.6842261326625731
sg374
F0.16
sg375
F-2.6842261326625731
sg376
g12
(g365
g14
NtRp670
(dp671
S'y'
F-0.5804105780524178
sS'x'
F-0.28566248371567449
sS'z'
F0.7625749184717856
sbsbag263
ag456
asg361
F0
sg362
F0
sS'U'
F0
sg363
F0.85864788862999619
sS'v'
(lp672
g464
ag629
ag466
asg372
F0.85864788862999619
sg373
F3.1415926535897931
sg374
F0.16
sg375
F3.1415926535897931
sg376
g12
(g365
g14
NtRp673
(dp674
S'y'
F-0.756959702299418
sS'x'
F0
sS'z'
F0.6534615590031112
sbsbag256
asg361
F0
sg362
F0
sS'U'
F0
sg363
F0.70351209910979928
sS'v'
(lp675
g12
(g365
g14
NtRp676
(dp677
S'y'
F-0.30901699437494745
sS'x'
F0.50000000000000011
sS'z'
F0.80901699437494745
sbag629
ag12
(g365
g14
NtRp678
(dp679
S'y'
F-0.80901699437494734
sS'x'
F0.3090169943749474
sS'z'
F0.5
sbasg372
F0.70351209910979928
sg373
F2.6842261326625731
sg374
F0.16
sg375
F2.6842261326625731
sg376
g12
(g365
g14
NtRp680
(dp681
S'y'
F-0.5804105780524178
sS'x'
F0.28566248371567449
sS'z'
F0.7625749184717856
sbsbag619
ag249
asg361
F0
sg362
F0
sS'U'
F0
sg363
F0.35072448297433167
sS'v'
(lp682
g629
ag12
(g365
g14
NtRp683
(dp684
S'y'
F-0.30901699437494745
sS'x'
F0.50000000000000011
sS'z'
F0.80901699437494745
sbag12
(g365
g14
NtRp685
(dp686
S'y'
F0
sS'x'
F0
sS'z'
F1
sbasg372
F0.35072448297433167
sg373
F2.6019212169055232
sg374
F0.16
sg375
F2.6019212169055232
sg376
g12
(g365
g14
NtRp687
(dp688
S'y'
F-0.29474809433674332
sS'x'
F0.17654912424700023
sS'z'
F0.93912404271878569
sbsbag242
a(iomma_geom
subFace
p689
(dp690
S'V'
F0
sg8
(lp691
I20
aI26
aI61
asS'F'
F0.079375000000000001
sS'i'
I63
sS'c'
(F0
F0.054106069567082381
F0.11163907025742835
tp692
sg11
g12
(g13
g14
NtRp693
(dp694
g17
F0.01
sg18
F0.040000000000000001
sS'F'
F0.040000000000000001
sS'k'
F0.059999999999999998
sg19
F0.40000000000000002
sg20
F1
sg21
I4
sbsg22
F1.6000000000000001
sg23
F0.040000000000000001
sS'n'
(lp695
g6
ag67
ag249
asg361
F0
sg362
F0
sS'U'
F0
sg363
F0.35072448297433167
sS'v'
(lp696
g12
(g365
g14
NtRp697
(dp698
S'y'
F0.30901699437494745
sS'x'
F0.50000000000000011
sS'z'
F0.80901699437494745
sbag12
(g365
g14
NtRp699
(dp700
S'y'
F0.52573111211913359
sS'x'
F0
sS'z'
F0.85065080835203999
sS'i'
I5
sbag685
asg372
F0.35072448297433167
sg373
F0.53967143668426987
sg374
F0.16
sg375
F0.53967143668426987
sg376
g12
(g365
g14
NtRp701
(dp702
S'y'
F0.29474809433674332
sS'x'
F0.17654912424700023
sS'z'
F0.93912404271878569
sbsbasg361
F0
sg362
F0
sS'U'
F0
sg363
F0.36486382811348328
sS'v'
(lp703
g683
ag697
ag685
asg372
F0.36486382811348328
sg373
F1.5707963267948966
sg374
F0.16
sg375
F1.5707963267948966
sg376
g12
(g365
g14
NtRp704
(dp705
S'y'
F0
sS'x'
F0.35682208977308999
sS'z'
F0.93417235896271567
sbsbasg361
F0
sg362
F0
sS'U'
F0
sg363
F0.71214843816490059
sS'v'
(lp706
g683
ag12
(g365
g14
NtRp707
(dp708
S'y'
F0
sS'x'
F0.85065080835203999
sS'z'
F0.52573111211913359
sS'i'
I9
sbag697
asg372
F0.71214843816490059
sg373
F1.5707963267948966
sg374
F0.16
sg375
F1.5707963267948966
sg376
g12
(g365
g14
NtRp709
(dp710
S'y'
F0
sS'x'
F0.65346155900311131
sS'z'
F0.75695970229941789
sbsbasg361
F0
sg362
F0
sS'U'
F0
sg363
F0.95156353170296648
sS'v'
(lp711
g12
(g365
g14
NtRp712
(dp713
S'y'
F0.30901699437494745
sS'x'
F0.50000000000000011
sS'z'
F0.80901699437494745
sbag707
ag12
(g365
g14
NtRp714
(dp715
S'y'
F0.50000000000000011
sS'x'
F0.80901699437494745
sS'z'
F0.30901699437494745
sbasg372
F0.95156353170296648
sg373
F1.2123741804683095
sg374
F0.16
sg375
F1.2123741804683095
sg376
g12
(g365
g14
NtRp716
(dp717
S'y'
F0.28566248371567449
sS'x'
F0.7625749184717856
sS'z'
F0.58041057805241769
sbsba(iomma_geom
subFace
p718
(dp719
S'V'
F0
sg8
(lp720
I76
aI78
aI79
asS'F'
F0.088125000000000009
sS'i'
I77
sS'c'
(F0.075790354600922427
F0
F0.5
tp721
sg11
g12
(g13
g14
NtRp722
(dp723
g17
F0.01
sg18
F0.040000000000000001
sS'F'
F0.040000000000000001
sS'k'
F0.059999999999999998
sg19
F0.40000000000000002
sg20
F1
sg21
I4
sbsg22
F1.6000000000000001
sg23
F0.040000000000000001
sS'n'
(lp724
g228
a(iomma_geom
subFace
p725
(dp726
S'V'
F0
sg8
(lp727
I77
aI58
aI31
asS'F'
F0.088749999999999996
sS'i'
I78
sS'c'
(F0.19199365783333705
F0
F0.59523573680448205
tp728
sg11
g12
(g13
g14
NtRp729
(dp730
g17
F0.01
sg18
F0.040000000000000001
sS'F'
F0.040000000000000001
sS'k'
F0.059999999999999998
sg19
F0.40000000000000002
sg20
F1
sg21
I4
sbsg22
F1.6000000000000001
sg23
F0.040000000000000001
sS'n'
(lp731
g718
a(iomma_geom
subFace
p732
(dp733
S'V'
F0
sg8
(lp734
I78
aI55
aI57
asS'F'
F0.076250000000000012
sS'i'
I58
sS'c'
(F0.403242078971145
F0
F0.59523573680448205
tp735
sg11
g12
(g13
g14
NtRp736
(dp737
g17
F0.01
sg18
F0.040000000000000001
sS'F'
F0.040000000000000001
sS'k'
F0.059999999999999998
sg19
F0.40000000000000002
sg20
F1
sg21
I4
sbsg22
F1.6000000000000001
sg23
F0.040000000000000001
sS'n'
(lp738
g725
ag165
a(iomma_geom
subFace
p739
(dp740
S'V'
F0
sg8
(lp741
I56
aI58
aI59
asS'F'
F0.075624999999999998
sS'i'
I57
sS'c'
(F0.42420964539907757
F0
F0.5
tp742
sg11
g12
(g13
g14
NtRp743
(dp744
g17
F0.01
sg18
F0.040000000000000001
sS'F'
F0.040000000000000001
sS'k'
F0.059999999999999998
sg19
F0.40000000000000002
sg20
F1
sg21
I4
sbsg22
F1.6000000000000001
sg23
F0.040000000000000001
sS'n'
(lp745
(iomma_geom
subFace
p746
(dp747
S'V'
F0
sg8
(lp748
I40
aI52
aI57
asS'F'
F0.075000000000000011
sS'i'
I56
sS'c'
(F0.5
F0
F0.40997416755264915
tp749
sg11
g12
(g13
g14
NtRp750
(dp751
g17
F0.01
sg18
F0.040000000000000001
sS'F'
F0.040000000000000001
sS'k'
F0.059999999999999998
sg19
F0.40000000000000002
sg20
F1
sg21
I4
sbsg22
F1.6000000000000001
sg23
F0.040000000000000001
sS'n'
(lp752
g200
ag179
ag739
asg361
F0
sg362
F0
sS'U'
F0
sg363
F1.5707963267948966
sS'v'
(lp753
g12
(g365
g14
NtRp754
(dp755
S'y'
F-0.85065080835203999
sS'x'
F0.52573111211913359
sS'z'
F0
sS'i'
I3
sbag12
(g365
g14
NtRp756
(dp757
S'y'
F-0.50000000000000011
sS'x'
F0.80901699437494745
sS'z'
F-0.30901699437494745
sbag12
(g365
g14
NtRp758
(dp759
S'y'
F-0.50000000000000011
sS'x'
F0.80901699437494745
sS'z'
F0.30901699437494745
sbasg372
F1.5707963267948966
sg373
F2.2829447649597974
sg374
F0.16
sg375
F2.2829447649597974
sg376
g12
(g365
g14
NtRp760
(dp761
S'y'
F-0.65346155900311131
sS'x'
F0.75695970229941789
sS'z'
F0
sbsbag732
ag221
asg361
F0
sg362
F0
sS'U'
F0
sg363
F1.5707963267948966
sS'v'
(lp762
g756
ag12
(g365
g14
NtRp763
(dp764
S'y'
F0
sS'x'
F1
sS'z'
F0
sbag758
asg372
F1.5707963267948966
sg373
F1.9356601549083798
sg374
F0.16
sg375
F1.9356601549083798
sg376
g12
(g365
g14
NtRp765
(dp766
S'y'
F-0.35682208977308999
sS'x'
F0.93417235896271567
sS'z'
F0
sbsbasg361
F0
sg362
F0
sS'U'
F0
sg363
F1.8699882178990683
sS'v'
(lp767
g756
ag12
(g365
g14
NtRp768
(dp769
S'y'
F0
sS'x'
F0.85065080835203999
sS'z'
F-0.52573111211913359
sS'i'
I8
sbag763
asg372
F1.8699882178990683
sg373
F1.7566208796831957
sg374
F0.16
sg375
F1.7566208796831957
sg376
g12
(g365
g14
NtRp770
(dp771
S'y'
F-0.17654912424700023
sS'x'
F0.93912404271878569
sS'z'
F-0.29474809433674332
sbsba(iomma_geom
subFace
p772
(dp773
S'V'
F0
sg8
(lp774
I72
aI78
aI29
asS'F'
F0.059374999999999997
sS'i'
I31
sS'c'
(F0.10995626987447141
F0
F0.69710792052698289
tp775
sg11
g12
(g13
g14
NtRp776
(dp777
g17
F0.01
sg18
F0.040000000000000001
sS'F'
F0.040000000000000001
sS'k'
F0.059999999999999998
sg19
F0.40000000000000002
sg20
F1
sg21
I4
sbsg22
F1.6000000000000001
sg23
F0.040000000000000001
sS'n'
(lp778
g158
ag725
a(iomma_geom
subFace
p779
(dp780
S'V'
F0
sg8
(lp781
I28
aI30
aI31
asS'F'
F0.058125000000000003
sS'i'
I29
sS'c'
(F0
F0.1739783190038259
F0.69591327601530362
tp782
sg11
g12
(g13
g14
NtRp783
(dp784
g17
F0.01
sg18
F0.040000000000000001
sS'F'
F0.040000000000000001
sS'k'
F0.059999999999999998
sg19
F0.40000000000000002
sg20
F1
sg21
I4
sbsg22
F1.6000000000000001
sg23
F0.040000000000000001
sS'n'
(lp785
(iomma_geom
subFace
p786
(dp787
S'V'
F0
sg8
(lp788
I11
aI75
aI29
asS'F'
F0.057500000000000002
sS'i'
I28
sS'c'
(F0
F0.43711647606765652
F0.77606514380344027
tp789
sg11
g12
(g13
g14
NtRp790
(dp791
g17
F0.01
sg18
F0.040000000000000001
sS'F'
F0.040000000000000001
sS'k'
F0.059999999999999998
sg19
F0.40000000000000002
sg20
F1
sg21
I4
sbsg22
F1.6000000000000001
sg23
F0.040000000000000001
sS'n'
(lp792
(iomma_geom
subFace
p793
(dp794
S'V'
F0
sg8
(lp795
I9
aI14
aI28
asS'F'
F0.046875
sS'i'
I11
sS'c'
(F0
F0.72668388829823372
F0.72668388829823372
tp796
sg11
g12
(g13
g14
NtRp797
(dp798
g17
F0.01
sg18
F0.040000000000000001
sS'F'
F0.040000000000000001
sS'k'
F0.059999999999999998
sg19
F0.40000000000000002
sg20
F1
sg21
I4
sbsg22
F1.6000000000000001
sg23
F0.040000000000000001
sS'n'
(lp799
g102
ag130
ag786
asg361
F0
sg362
F0
sS'U'
F0
sg363
F2.2829447649597969
sS'v'
(lp800
g12
(g365
g14
NtRp801
(dp802
S'y'
F0.80901699437494734
sS'x'
F0.3090169943749474
sS'z'
F-0.5
sbag12
(g365
g14
NtRp803
(dp804
S'y'
F0.52573111211913359
sS'x'
F0
sS'z'
F-0.85065080835203999
sS'i'
I7
sbag12
(g365
g14
NtRp805
(dp806
S'y'
F0.80901699437494734
sS'x'
F-0.3090169943749474
sS'z'
F-0.5
sbasg372
F2.2829447649597969
sg373
F0
sg374
F0.16
sg375
F0
sg376
g12
(g365
g14
NtRp807
(dp808
S'y'
F0.756959702299418
sS'x'
F0
sS'z'
F-0.6534615590031112
sbsbag144
ag779
asg361
F0
sg362
F0
sS'U'
F0
sg363
F2.4380805544799942
sS'v'
(lp809
g803
ag12
(g365
g14
NtRp810
(dp811
S'y'
F0.80901699437494734
sS'x'
F0.3090169943749474
sS'z'
F-0.5
sbag12
(g365
g14
NtRp812
(dp813
S'y'
F0.30901699437494745
sS'x'
F0.50000000000000011
sS'z'
F-0.80901699437494745
sbasg372
F2.4380805544799942
sg373
F0.45736652092722019
sg374
F0.16
sg375
F0.45736652092722019
sg376
g12
(g365
g14
NtRp814
(dp815
S'y'
F0.5804105780524178
sS'x'
F0.28566248371567449
sS'z'
F-0.7625749184717856
sbsba(iomma_geom
subFace
p816
(dp817
S'V'
F0
sg8
(lp818
I10
aI79
aI29
asS'F'
F0.058749999999999997
sS'i'
I30
sS'c'
(F0
F0.22429629671220611
F0.59221362490724094
tp819
sg11
g12
(g13
g14
NtRp820
(dp821
g17
F0.01
sg18
F0.040000000000000001
sS'F'
F0.040000000000000001
sS'k'
F0.059999999999999998
sg19
F0.40000000000000002
sg20
F1
sg21
I4
sbsg22
F1.6000000000000001
sg23
F0.040000000000000001
sS'n'
(lp822
g95
a(iomma_geom
subFace
p823
(dp824
S'V'
F0
sg8
(lp825
I77
aI24
aI30
asS'F'
F0.08937500000000001
sS'i'
I79
sS'c'
(F0
F0.090025832447350851
F0.5
tp826
sg11
g12
(g13
g14
NtRp827
(dp828
g17
F0.01
sg18
F0.040000000000000001
sS'F'
F0.040000000000000001
sS'k'
F0.059999999999999998
sg19
F0.40000000000000002
sg20
F1
sg21
I4
sbsg22
F1.6000000000000001
sg23
F0.040000000000000001
sS'n'
(lp829
g718
ag81
ag816
asg361
F0
sg362
F0
sS'U'
F0
sg363
F1.5707963267948966
sS'v'
(lp830
g12
(g365
g14
NtRp831
(dp832
S'y'
F0.50000000000000011
sS'x'
F0.80901699437494745
sS'z'
F-0.30901699437494745
sbag12
(g365
g14
NtRp833
(dp834
S'y'
F0.85065080835203999
sS'x'
F0.52573111211913359
sS'z'
F0
sS'i'
I1
sbag12
(g365
g14
NtRp835
(dp836
S'y'
F0.50000000000000011
sS'x'
F0.80901699437494745
sS'z'
F0.30901699437494745
sbasg372
F1.5707963267948966
sg373
F0.85864788862999608
sg374
F0.16
sg375
F0.85864788862999608
sg376
g12
(g365
g14
NtRp837
(dp838
S'y'
F0.65346155900311131
sS'x'
F0.75695970229941789
sS'z'
F0
sbsbag779
asg361
F0
sg362
F0
sS'U'
F0
sg363
F1.8604939733643695
sS'v'
(lp839
g810
ag833
ag12
(g365
g14
NtRp840
(dp841
S'y'
F0.50000000000000011
sS'x'
F0.80901699437494745
sS'z'
F-0.30901699437494745
sbasg372
F1.8604939733643695
sg373
F0.65057963701693333
sg374
F0.16
sg375
F0.65057963701693333
sg376
g12
(g365
g14
NtRp842
(dp843
S'y'
F0.7625749184717856
sS'x'
F0.5804105780524178
sS'z'
F-0.28566248371567449
sbsbag772
asg361
F0
sg362
F0
sS'U'
F0
sg363
F2.1862760354652839
sS'v'
(lp844
g810
ag840
ag812
asg372
F2.1862760354652839
sg373
F0.78539816339744828
sg374
F0.16
sg375
F0.78539816339744828
sg376
g12
(g365
g14
NtRp845
(dp846
S'y'
F0.57735026918962573
sS'x'
F0.57735026918962573
sS'z'
F-0.57735026918962573
sbsbasg361
F0
sg362
F0
sS'U'
F0
sg363
F2.1900291218868269
sS'v'
(lp847
g840
ag768
ag812
asg372
F2.1900291218868269
sg373
F1.2123741804683092
sg374
F0.16
sg375
F1.2123741804683092
sg376
g12
(g365
g14
NtRp848
(dp849
S'y'
F0.28566248371567454
sS'x'
F0.7625749184717856
sS'z'
F-0.5804105780524178
sbsbasg361
F0
sg362
F0
sS'U'
F0
sg363
F1.8699882178990683
sS'v'
(lp850
g12
(g365
g14
NtRp851
(dp852
S'y'
F0
sS'x'
F1
sS'z'
F0
sbag768
ag831
asg372
F1.8699882178990683
sg373
F1.3849717739065976
sg374
F0.16
sg375
F1.3849717739065976
sg376
g12
(g365
g14
NtRp853
(dp854
S'y'
F0.17654912424700023
sS'x'
F0.93912404271878569
sS'z'
F-0.29474809433674332
sbsbag823
asg361
F0
sg362
F0
sS'U'
F0
sg363
F1.5707963267948966
sS'v'
(lp855
g851
ag831
ag835
asg372
F1.5707963267948966
sg373
F1.2059324986814133
sg374
F0.16
sg375
F1.2059324986814133
sg376
g12
(g365
g14
NtRp856
(dp857
S'y'
F0.35682208977308999
sS'x'
F0.93417235896271567
sS'z'
F0
sbsbag221
asg361
F0
sg362
F0
sS'U'
F0
sg363
F1.2716044356907248
sS'v'
(lp858
g707
ag851
ag835
asg372
F1.2716044356907248
sg373
F1.3849717739065976
sg374
F0.16
sg375
F1.3849717739065976
sg376
g12
(g365
g14
NtRp859
(dp860
S'y'
F0.17654912424700023
sS'x'
F0.93912404271878569
sS'z'
F0.29474809433674332
sbsbag739
asg361
F0
sg362
F0
sS'U'
F0
sg363
F1.2716044356907248
sS'v'
(lp861
g763
ag707
ag758
asg372
F1.2716044356907248
sg373
F1.7566208796831957
sg374
F0.16
sg375
F1.7566208796831957
sg376
g12
(g365
g14
NtRp862
(dp863
S'y'
F-0.17654912424700023
sS'x'
F0.93912404271878569
sS'z'
F0.29474809433674332
sbsbag242
asg361
F0
sg362
F0
sS'U'
F0
sg363
F0.95156353170296637
sS'v'
(lp864
g12
(g365
g14
NtRp865
(dp866
S'y'
F-0.50000000000000011
sS'x'
F0.80901699437494745
sS'z'
F0.30901699437494745
sbag707
ag676
asg372
F0.95156353170296637
sg373
F1.9292184731214839
sg374
F0.16
sg375
F1.9292184731214839
sg376
g12
(g365
g14
NtRp867
(dp868
S'y'
F-0.28566248371567454
sS'x'
F0.7625749184717856
sS'z'
F0.5804105780524178
sbsbag263
asg361
F0
sg362
F0
sS'U'
F0
sg363
F0.9553166181245093
sS'v'
(lp869
g865
ag676
ag678
asg372
F0.9553166181245093
sg373
F2.3561944901923448
sg374
F0.16
sg375
F2.3561944901923448
sg376
g12
(g365
g14
NtRp870
(dp871
S'y'
F-0.57735026918962573
sS'x'
F0.57735026918962573
sS'z'
F0.57735026918962573
sbsbag193
ag746
asg361
F0
sg362
F0
sS'U'
F0
sg363
F1.2810986802254238
sS'v'
(lp872
g754
ag865
ag678
asg372
F1.2810986802254238
sg373
F2.4910130165728601
sg374
F0.16
sg375
F2.4910130165728601
sg376
g12
(g365
g14
NtRp873
(dp874
S'y'
F-0.7625749184717856
sS'x'
F0.5804105780524178
sS'z'
F0.28566248371567449
sbsbag456
ag186
asg361
F0
sg362
F0
sS'U'
F0
sg363
F1.3933169335689113
sS'v'
(lp875
g754
ag464
ag468
asg372
F1.3933169335689113
sg373
F2.8374744746423666
sg374
F0.16
sg375
F2.8374744746423666
sg376
g12
(g365
g14
NtRp876
(dp877
S'y'
F-0.93912404271878569
sS'x'
F0.29474809433674326
sS'z'
F0.1765491242470002
sbsbag477
ag179
asg361
F0
sg362
F0
sS'U'
F0
sg363
F1.7482757200208821
sS'v'
(lp878
g754
ag529
ag524
asg372
F1.7482757200208821
sg373
F2.8374744746423666
sg374
F0.16
sg375
F2.8374744746423666
sg376
g12
(g365
g14
NtRp879
(dp880
S'y'
F-0.93912404271878569
sS'x'
F0.29474809433674326
sS'z'
F-0.1765491242470002
sbsbag172
ag746
asg361
F0
sg362
F0
sS'U'
F0
sg363
F1.8604939733643695
sS'v'
(lp881
g754
ag515
ag12
(g365
g14
NtRp882
(dp883
S'y'
F-0.50000000000000011
sS'x'
F0.80901699437494745
sS'z'
F-0.30901699437494745
sbasg372
F1.8604939733643695
sg373
F2.4910130165728601
sg374
F0.16
sg375
F2.4910130165728601
sg376
g12
(g365
g14
NtRp884
(dp885
S'y'
F-0.7625749184717856
sS'x'
F0.5804105780524178
sS'z'
F-0.28566248371567449
sbsbag491
ag165
asg361
F0
sg362
F0
sS'U'
F0
sg363
F2.1862760354652839
sS'v'
(lp886
g515
ag517
ag882
asg372
F2.1862760354652839
sg373
F2.3561944901923448
sg374
F0.16
sg375
F2.3561944901923448
sg376
g12
(g365
g14
NtRp887
(dp888
S'y'
F-0.57735026918962573
sS'x'
F0.57735026918962573
sS'z'
F-0.57735026918962573
sbsbag732
asg361
F0
sg362
F0
sS'U'
F0
sg363
F2.1900291218868269
sS'v'
(lp889
g517
ag768
ag882
asg372
F2.1900291218868269
sg373
F1.9292184731214839
sg374
F0.16
sg375
F1.9292184731214839
sg376
g12
(g365
g14
NtRp890
(dp891
S'y'
F-0.28566248371567449
sS'x'
F0.7625749184717856
sS'z'
F-0.58041057805241769
sbsbag772
asg361
F0
sg362
F0
sS'U'
F0
sg363
F2.4294442154248928
sS'v'
(lp892
g768
ag506
ag12
(g365
g14
NtRp893
(dp894
S'y'
F0.30901699437494745
sS'x'
F0.50000000000000011
sS'z'
F-0.80901699437494745
sbasg372
F2.4294442154248928
sg373
F1.5707963267948966
sg374
F0.16
sg375
F1.5707963267948966
sg376
g12
(g365
g14
NtRp895
(dp896
S'y'
F0
sS'x'
F0.65346155900311131
sS'z'
F-0.75695970229941789
sbsbag498
ag144
asg361
F0
sg362
F0
sS'U'
F0
sg363
F2.7767288254763098
sS'v'
(lp897
g506
ag510
ag893
asg372
F2.7767288254763098
sg373
F1.5707963267948966
sg374
F0.16
sg375
F1.5707963267948966
sg376
g12
(g365
g14
NtRp898
(dp899
S'y'
F0
sS'x'
F0.35682208977308999
sS'z'
F-0.93417235896271567
sbsbag786
asg361
F0
sg362
F0
sS'U'
F0
sg363
F2.7908681706154614
sS'v'
(lp900
g510
ag803
ag893
asg372
F2.7908681706154614
sg373
F0.53967143668426987
sg374
F0.16
sg375
F0.53967143668426987
sg376
g12
(g365
g14
NtRp901
(dp902
S'y'
F0.29474809433674332
sS'x'
F0.17654912424700023
sS'z'
F-0.93912404271878569
sbsbag407
ag130
asg361
F0
sg362
F0
sS'U'
F0
sg363
F2.7908681706154614
sS'v'
(lp903
g559
ag803
ag552
asg372
F2.7908681706154614
sg373
F-0.53967143668426987
sg374
F0.16
sg375
F-0.53967143668426987
sg376
g12
(g365
g14
NtRp904
(dp905
S'y'
F0.29474809433674332
sS'x'
F-0.17654912424700023
sS'z'
F-0.93912404271878569
sbsbag793
ag123
asg361
F0
sg362
F0
sS'U'
F0
sg363
F2.4380805544799942
sS'v'
(lp906
g12
(g365
g14
NtRp907
(dp908
S'y'
F0.80901699437494734
sS'x'
F-0.3090169943749474
sS'z'
F-0.5
sbag803
ag571
asg372
F2.4380805544799942
sg373
F-0.45736652092722019
sg374
F0.16
sg375
F-0.45736652092722019
sg376
g12
(g365
g14
NtRp909
(dp910
S'y'
F0.5804105780524178
sS'x'
F-0.28566248371567449
sS'z'
F-0.7625749184717856
sbsbag563
asg361
F0
sg362
F0
sS'U'
F0
sg363
F2.1862760354652839
sS'v'
(lp911
g907
ag571
ag575
asg372
F2.1862760354652839
sg373
F-0.78539816339744828
sg374
F0.16
sg375
F-0.78539816339744828
sg376
g12
(g365
g14
NtRp912
(dp913
S'y'
F0.57735026918962573
sS'x'
F-0.57735026918962573
sS'z'
F-0.57735026918962573
sbsbag354
asg361
F0
sg362
F0
sS'U'
F0
sg363
F1.8604939733643695
sS'v'
(lp914
g366
ag907
ag575
asg372
F1.8604939733643695
sg373
F-0.65057963701693333
sg374
F0.16
sg375
F-0.65057963701693333
sg376
g12
(g365
g14
NtRp915
(dp916
S'y'
F0.7625749184717856
sS'x'
F-0.5804105780524178
sS'z'
F-0.28566248371567449
sbsbasg361
F0
sg362
F0
sS'U'
F0
sg363
F1.7482757200208821
sS'v'
(lp917
g366
ag12
(g365
g14
NtRp918
(dp919
S'y'
F1
sS'x'
F0
sS'z'
F0
sbag805
asg372
F1.7482757200208821
sg373
F-0.30411817894742676
sg374
F0.16
sg375
F-0.30411817894742676
sg376
g12
(g365
g14
NtRp920
(dp921
S'y'
F0.93912404271878569
sS'x'
F-0.29474809433674326
sS'z'
F-0.1765491242470002
sbsbag95
ag793
asg361
F0
sg362
F0
sS'U'
F0
sg363
F1.9356601549083798
sS'v'
(lp922
g918
ag801
ag805
asg372
F1.9356601549083798
sg373
F0
sg374
F0.16
sg375
F0
sg376
g12
(g365
g14
NtRp923
(dp924
S'y'
F0.93417235896271567
sS'x'
F0
sS'z'
F-0.35682208977308988
sbsbag816
asg361
F0
sg362
F0
sS'U'
F0
sg363
F1.7482757200208821
sS'v'
(lp925
g918
ag833
ag801
asg372
F1.7482757200208821
sg373
F0.30411817894742676
sg374
F0.16
sg375
F0.30411817894742676
sg376
g12
(g365
g14
NtRp926
(dp927
S'y'
F0.93912404271878569
sS'x'
F0.29474809433674326
sS'z'
F-0.1765491242470002
sbsbag81
asg361
F0
sg362
F0
sS'U'
F0
sg363
F1.3933169335689113
sS'v'
(lp928
g12
(g365
g14
NtRp929
(dp930
S'y'
F0.80901699437494734
sS'x'
F0.3090169943749474
sS'z'
F0.5
sbag833
ag12
(g365
g14
NtRp931
(dp932
S'y'
F1
sS'x'
F0
sS'z'
F0
sbasg372
F1.3933169335689113
sg373
F0.30411817894742676
sg374
F0.16
sg375
F0.30411817894742676
sg376
g12
(g365
g14
NtRp933
(dp934
S'y'
F0.93912404271878569
sS'x'
F0.29474809433674326
sS'z'
F0.1765491242470002
sbsbag823
ag74
asg361
F0
sg362
F0
sS'U'
F0
sg363
F1.2810986802254238
sS'v'
(lp935
g833
ag12
(g365
g14
NtRp936
(dp937
S'y'
F0.80901699437494734
sS'x'
F0.3090169943749474
sS'z'
F0.5
sbag714
asg372
F1.2810986802254238
sg373
F0.65057963701693333
sg374
F0.16
sg375
F0.65057963701693333
sg376
g12
(g365
g14
NtRp938
(dp939
S'y'
F0.7625749184717856
sS'x'
F0.5804105780524178
sS'z'
F0.28566248371567449
sbsbag67
ag235
asg361
F0
sg362
F0
sS'U'
F0
sg363
F0.9553166181245093
sS'v'
(lp940
g936
ag712
ag714
asg372
F0.9553166181245093
sg373
F0.78539816339744828
sg374
F0.16
sg375
F0.78539816339744828
sg376
g12
(g365
g14
NtRp941
(dp942
S'y'
F0.57735026918962573
sS'x'
F0.57735026918962573
sS'z'
F0.57735026918962573
sbsbag689
asg361
F0
sg362
F0
sS'U'
F0
sg363
F0.70351209910979928
sS'v'
(lp943
g936
ag699
ag712
asg372
F0.70351209910979928
sg373
F0.45736652092722019
sg374
F0.16
sg375
F0.45736652092722019
sg376
g12
(g365
g14
NtRp944
(dp945
S'y'
F0.5804105780524178
sS'x'
F0.28566248371567449
sS'z'
F0.7625749184717856
sbsbasg361
F0
sg362
F0
sS'U'
F0
sg363
F0.85864788862999619
sS'v'
(lp946
g12
(g365
g14
NtRp947
(dp948
S'y'
F0.80901699437494734
sS'x'
F-0.3090169943749474
sS'z'
F0.5
sbag699
ag929
asg372
F0.85864788862999619
sg373
F0
sg374
F0.16
sg375
F0
sg376
g12
(g365
g14
NtRp949
(dp950
S'y'
F0.756959702299418
sS'x'
F0
sS'z'
F0.6534615590031112
sbsbag88
asg361
F0
sg362
F0
sS'U'
F0
sg363
F1.2059324986814135
sS'v'
(lp951
g947
ag929
ag931
asg372
F1.2059324986814135
sg373
F0
sg374
F0.16
sg375
F0
sg376
g12
(g365
g14
NtRp952
(dp953
S'y'
F0.93417235896271567
sS'x'
F0
sS'z'
F0.35682208977308988
sbsbag109
asg361
F0
sg362
F0
sS'U'
F0
sg363
F1.3933169335689113
sS'v'
(lp954
g366
ag947
ag931
asg372
F1.3933169335689113
sg373
F-0.30411817894742676
sg374
F0.16
sg375
F-0.30411817894742676
sg376
g12
(g365
g14
NtRp955
(dp956
S'y'
F0.93912404271878569
sS'x'
F-0.29474809433674326
sS'z'
F0.1765491242470002
sbsbag354
asg361
F0
sg362
F0
sS'U'
F0
sg363
F1.2810986802254238
sS'v'
(lp957
g366
ag606
ag12
(g365
g14
NtRp958
(dp959
S'y'
F0.80901699437494734
sS'x'
F-0.3090169943749474
sS'z'
F0.5
sbasg372
F1.2810986802254238
sg373
F-0.65057963701693333
sg374
F0.16
sg375
F-0.65057963701693333
sg376
g12
(g365
g14
NtRp960
(dp961
S'y'
F0.7625749184717856
sS'x'
F-0.5804105780524178
sS'z'
F0.28566248371567449
sbsbag333
ag25
asg361
F0
sg362
F0
sS'U'
F0
sg363
F0.9553166181245093
sS'v'
(lp962
g606
ag608
ag958
asg372
F0.9553166181245093
sg373
F-0.78539816339744828
sg374
F0.16
sg375
F-0.78539816339744828
sg376
g12
(g365
g14
NtRp963
(dp964
S'y'
F0.57735026918962573
sS'x'
F-0.57735026918962573
sS'z'
F0.57735026918962573
sbsbag60
ag6
asg361
F0
sg362
F0
sS'U'
F0
sg363
F0.70351209910979928
sS'v'
(lp965
g608
ag699
ag958
asg372
F0.70351209910979928
sg373
F-0.45736652092722019
sg374
F0.16
sg375
F-0.45736652092722019
sg376
g12
(g365
g14
NtRp966
(dp967
S'y'
F0.5804105780524178
sS'x'
F-0.28566248371567449
sS'z'
F0.7625749184717856
sbsbag612
ag689
asg361
F0
sg362
F0
sS'U'
F0
sg363
F0.35072448297433167
sS'v'
(lp968
g699
ag636
ag631
asg372
F0.35072448297433167
sg373
F-0.53967143668426987
sg374
F0.16
sg375
F-0.53967143668426987
sg376
g12
(g365
g14
NtRp969
(dp970
S'y'
F0.29474809433674332
sS'x'
F-0.17654912424700023
sS'z'
F0.93912404271878569
sbsbag612
ag619
ag256
ag249
ag689
aa(lp971
g25
ag326
ag67
ag263
ag242
ag277
aa(lp972
g32
ag333
ag60
ag74
ag235
ag207
ag214
ag270
ag284
ag319
aa(lp973
g39
ag53
ag340
ag81
ag312
ag200
ag456
ag221
ag291
ag228
aa(lp974
g46
ag88
ag193
ag449
aa(lp975
g354
ag347
ag305
ag298
ag746
ag739
ag718
ag823
aa(lp976
g109
ag95
ag186
ag442
aa(lp977
g102
ag116
ag379
ag816
ag386
ag477
ag179
ag732
ag435
ag725
aa(lp978
g793
ag123
ag563
ag779
ag772
ag484
ag172
ag165
ag428
ag393
aa(lp979
g130
ag786
ag400
ag491
ag421
ag158
aa(lp980
g407
ag137
ag414
ag151
ag498
ag144
aasS'numLEDs'
p981
I80
sS'px'
p982
(lp983
(lp984
I0
aI0
aI0
aag984
ag984
ag984
ag984
ag984
ag984
ag984
ag984
ag984
ag984
ag984
ag984
ag984
ag984
ag984
ag984
ag984
ag984
ag984
ag984
ag984
ag984
ag984
ag984
ag984
ag984
ag984
ag984
ag984
ag984
ag984
ag984
ag984
ag984
ag984
ag984
ag984
ag984
ag984
ag984
ag984
ag984
ag984
ag984
ag984
ag984
ag984
ag984
ag984
ag984
ag984
ag984
ag984
ag984
ag984
ag984
ag984
ag984
ag984
ag984
ag984
ag984
ag984
ag984
ag984
ag984
ag984
ag984
ag984
ag984
ag984
ag984
ag984
ag984
ag984
ag984
ag984
ag984
ag984
asS'chan'
p985
(lp986
g39
ag32
ag333
ag25
ag46
ag53
ag60
ag88
ag109
ag102
ag95
ag793
ag116
ag123
ag130
ag563
ag354
ag347
ag379
ag340
ag6
ag612
ag326
ag619
ag81
ag74
ag67
ag235
ag786
ag779
ag816
ag772
ag312
ag305
ag386
ag298
ag400
ag407
ag137
ag414
ag200
ag207
ag214
ag263
ag193
ag456
ag270
ag449
ag186
ag477
ag442
ag484
ag179
ag172
ag491
ag165
ag746
ag739
ag732
ag221
ag256
ag249
ag242
ag689
ag291
ag284
ag277
ag319
ag421
ag428
ag435
ag393
ag158
ag151
ag498
ag144
ag228
ag718
ag725
ag823
asS'ins'
p987
S''
sS'allv'
p988
(lp989
sS'fc'
p990
g12
(copc
Client
p991
g14
NtRp992
(dp993
S'_socket'
p994
NsS'_port'
p995
I7890
sS'_long_connection'
p996
I01
sS'verbose'
p997
I00
sS'_ip'
p998
S'localhost'
p999
sbsS'verts'
p1000
(lp1001
g366
ag833
ag473
ag754
ag629
ag699
ag508
ag803
ag768
ag707
ag573
ag601
asS'nfaces'
p1002
I19
sS'faces'
p1003
(lp1004
sS'facemap'
p1005
(lp1006
S'a'
aS'b'
aS'c'
aS'd'
aS'e'
aS'f'
aS'g'
aS'h'
aS'i'
aS'j'
aS'k'
aS'l'
aS'm'
aS'n'
aS'o'
aS'p'
aS'q'
aS'r'
aS's'
asS'cmap'
p1007
(lp1008
sS'boardmap'
p1009
(lp1010
S'x'
aS'x'
aS'x'
aS'x'
aS'x'
aS'x'
aS'x'
aS'x'
aS'x'
aS'x'
aS'x'
aS'x'
aS'x'
aS'x'
aS'x'
aS'x'
aS'x'
aS'x'
aS'x'
asS'lngs'
p1011
(lp1012
(lp1013
g449
ag442
aa(lp1014
g619
ag414
ag277
ag421
aa(lp1015
g291
ag435
aa(lp1016
g298
ag284
ag428
aa(lp1017
g305
ag319
ag393
aa(lp1018
g312
ag386
aa(lp1019
g612
ag326
ag400
ag407
aa(lp1020
g379
ag340
aa(lp1021
g333
ag563
ag347
aa(lp1022
g32
ag123
ag354
aa(lp1023
g39
ag116
aa(lp1024
g25
ag130
ag6
ag137
aa(lp1025
g46
ag109
aa(lp1026
g53
ag60
ag102
ag793
aa(lp1027
g88
ag95
aa(lp1028
g67
ag786
ag689
ag144
aa(lp1029
g81
ag816
aa(lp1030
g74
ag779
ag823
aa(lp1031
g235
ag772
ag718
aa(lp1032
g228
ag725
aa(lp1033
g249
ag242
ag158
ag151
aa(lp1034
g732
ag221
aa(lp1035
g214
ag165
ag739
aa(lp1036
g207
ag172
ag746
aa(lp1037
g200
ag179
aa(lp1038
g263
ag491
ag256
ag498
aa(lp1039
g193
ag186
aa(lp1040
g456
ag270
ag477
ag484
aasS'qfaces'
p1041
(lp1042
(iomma_geom
Quadface
p1043
(dp1044
S'i'
I0
sS'vi'
p1045
(lp1046
I0
aI11
aI5
asS'f'
(lp1047
g39
ag32
ag333
ag25
asS'a'
S'A'
sS'v'
(lp1048
g366
ag601
ag699
ag606
ag608
ag958
asba(iomma_geom
Quadface
p1049
(dp1050
S'i'
I1
sg1045
(lp1051
I0
aI5
aI1
asS'f'
(lp1052
g46
ag53
ag60
ag88
asS'a'
S'x'
sS'v'
(lp1053
g366
ag699
ag833
ag947
ag929
ag931
asba(iomma_geom
Quadface
p1054
(dp1055
S'i'
I2
sg1045
(lp1056
I0
aI1
aI7
asS'f'
(lp1057
g109
ag102
ag95
ag793
asS'a'
S'x'
sS'v'
(lp1058
g366
ag833
ag803
ag918
ag801
ag805
asba(iomma_geom
Quadface
p1059
(dp1060
S'i'
I3
sg1045
(lp1061
I0
aI7
aI10
asS'f'
(lp1062
g116
ag123
ag130
ag563
asS'a'
S'x'
sS'v'
(lp1063
g366
ag803
ag573
ag907
ag571
ag575
asba(iomma_geom
Quadface
p1064
(dp1065
S'i'
I4
sg1045
(lp1066
I0
aI10
aI11
asS'f'
(lp1067
g354
ag347
ag379
ag340
asS'a'
S'x'
sS'v'
(lp1068
g366
ag573
ag601
ag368
ag593
ag370
asba(iomma_geom
Quadface
p1069
(dp1070
S'i'
I5
sg1045
(lp1071
I5
aI11
aI4
asS'f'
(lp1072
g6
ag612
ag326
ag619
asS'a'
S'x'
sS'v'
(lp1073
g699
ag601
ag629
ag636
ag627
ag631
asba(iomma_geom
Quadface
p1074
(dp1075
S'i'
I6
sg1045
(lp1076
I1
aI5
aI9
asS'f'
(lp1077
g81
ag74
ag67
ag235
asS'a'
S'x'
sS'v'
(lp1078
g833
ag699
ag707
ag936
ag712
ag714
asba(iomma_geom
Quadface
p1079
(dp1080
S'i'
I7
sg1045
(lp1081
I7
aI1
aI8
asS'f'
(lp1082
g786
ag779
ag816
ag772
asS'a'
S'x'
sS'v'
(lp1083
g803
ag833
ag768
ag810
ag840
ag812
asba(iomma_geom
Quadface
p1084
(dp1085
S'i'
I8
sg1045
(lp1086
I11
aI10
aI2
asS'f'
(lp1087
g312
ag305
ag386
ag298
asS'a'
S'x'
sS'v'
(lp1088
g601
ag573
ag473
ag586
ag588
ag651
asba(iomma_geom
Quadface
p1089
(dp1090
S'i'
I9
sg1045
(lp1091
I10
aI7
aI6
asS'f'
(lp1092
g400
ag407
ag137
ag414
asS'a'
S'x'
sS'v'
(lp1093
g573
ag803
ag508
ag559
ag552
ag554
asba(iomma_geom
Quadface
p1094
(dp1095
S'i'
I10
sg1045
(lp1096
I3
aI9
aI4
asS'f'
(lp1097
g200
ag207
ag214
ag263
asS'a'
S'x'
sS'v'
(lp1098
g754
ag707
ag629
ag865
ag676
ag678
asba(iomma_geom
Quadface
p1099
(dp1100
S'i'
I11
sg1045
(lp1101
I3
aI4
aI2
asS'f'
(lp1102
g193
ag456
ag270
ag449
asS'a'
S'x'
sS'v'
(lp1103
g754
ag629
ag473
ag464
ag466
ag468
asba(iomma_geom
Quadface
p1104
(dp1105
S'i'
I12
sg1045
(lp1106
I3
aI2
aI6
asS'f'
(lp1107
g186
ag477
ag442
ag484
asS'a'
S'x'
sS'v'
(lp1108
g754
ag473
ag508
ag529
ag522
ag524
asba(iomma_geom
Quadface
p1109
(dp1110
S'i'
I13
sg1045
(lp1111
I3
aI6
aI8
asS'f'
(lp1112
g179
ag172
ag491
ag165
asS'a'
S'x'
sS'v'
(lp1113
g754
ag508
ag768
ag515
ag517
ag882
asba(iomma_geom
Quadface
p1114
(dp1115
S'i'
I14
sg1045
(lp1116
I3
aI8
aI9
asS'f'
(lp1117
g746
ag739
ag732
ag221
asS'a'
S'x'
sS'v'
(lp1118
g754
ag768
ag707
ag756
ag763
ag758
asba(iomma_geom
Quadface
p1119
(dp1120
S'i'
I15
sg1045
(lp1121
I4
aI9
aI5
asS'f'
(lp1122
g256
ag249
ag242
ag689
asS'a'
S'x'
sS'v'
(lp1123
g629
ag707
ag699
ag683
ag697
ag685
asba(iomma_geom
Quadface
p1124
(dp1125
S'i'
I16
sg1045
(lp1126
I2
aI4
aI11
asS'f'
(lp1127
g291
ag284
ag277
ag319
asS'a'
S'x'
sS'v'
(lp1128
g473
ag629
ag601
ag662
ag644
ag646
asba(iomma_geom
Quadface
p1129
(dp1130
S'i'
I17
sg1045
(lp1131
I6
aI2
aI10
asS'f'
(lp1132
g421
ag428
ag435
ag393
asS'a'
S'x'
sS'v'
(lp1133
g508
ag473
ag573
ag537
ag539
ag544
asba(iomma_geom
Quadface
p1134
(dp1135
S'i'
I18
sg1045
(lp1136
I8
aI6
aI7
asS'f'
(lp1137
g158
ag151
ag498
ag144
asS'a'
S'x'
sS'v'
(lp1138
g768
ag508
ag803
ag506
ag510
ag893
asba(iomma_geom
Quadface
p1139
(dp1140
S'i'
I19
sg1045
(lp1141
I9
aI8
aI1
asS'f'
(lp1142
g228
ag718
ag725
ag823
asS'a'
S'x'
sS'v'
(lp1143
g707
ag768
ag833
ag851
ag831
ag835
asbasb.