(i__main__
Ommahard
p1
(dp2
S'lats'
p3
(lp4
(lp5
(iomma_geom
subFace
p6
(dp7
S'V'
F0
sS'en'
p8
(lp9
I20
aI22
aI23
asS'F'
F0.053125000000000006
sS'i'
I21
sS'c'
(F0
F0
F0
tp10
sS'rc'
p11
ccopy_reg
_reconstructor
p12
(comma_geom
RDConstants
p13
c__builtin__
object
p14
NtRp15
(dp16
S'diffusion_rate_V'
p17
F0.01
sS'diffusion_rate_U'
p18
F0.040000000000000001
sS'F'
F0.040000000000000001
sS'k'
F0.059999999999999998
sS'reaction_rate'
p19
F0.40000000000000002
sS'del_X2'
p20
F1
sS'del_T'
p21
I4
sbsS'rcUV'
p22
F1.6000000000000001
sS'dcV'
p23
F0.040000000000000001
sS'n'
(lp24
(iomma_geom
subFace
p25
(dp26
S'V'
F0
sg8
(lp27
I3
aI21
aI63
asS'F'
F0.052500000000000005
sS'i'
I20
sS'c'
(F0
F0.055272063701741446
F0.11054412345471176
tp28
sg11
g12
(g13
g14
NtRp29
(dp30
g17
F0.01
sg18
F0.040000000000000001
sS'F'
F0.040000000000000001
sS'k'
F0.059999999999999998
sg19
F0.40000000000000002
sg20
F1
sg21
I4
sbsg22
F1.6000000000000001
sg23
F0.040000000000000001
sS'n'
(lp31
(iomma_geom
subFace
p32
(dp33
S'V'
F0
sg8
(lp34
I1
aI6
aI20
asS'F'
F0.041875000000000002
sS'i'
I3
sS'c'
(F0
F0.1954160396115949
F0.19711718603322087
tp35
sg11
g12
(g13
g14
NtRp36
(dp37
g17
F0.01
sg18
F0.040000000000000001
sS'F'
F0.040000000000000001
sS'k'
F0.059999999999999998
sg19
F0.40000000000000002
sg20
F1
sg21
I4
sbsg22
F1.6000000000000001
sg23
F0.040000000000000001
sS'n'
(lp38
(iomma_geom
subFace
p39
(dp40
S'V'
F0
sg8
(lp41
I0
aI2
aI3
asS'F'
F0.040625000000000001
sS'i'
I1
sS'c'
(F0
F0.232279528442907
F0.11613976254258751
tp42
sg11
g12
(g13
g14
NtRp43
(dp44
g17
F0.01
sg18
F0.040000000000000001
sS'F'
F0.040000000000000001
sS'k'
F0.059999999999999998
sg19
F0.40000000000000002
sg20
F1
sg21
I4
sbsg22
F1.6000000000000001
sg23
F0.040000000000000001
sS'n'
(lp45
(iomma_geom
subFace
p46
(dp47
S'V'
F0
sg8
(lp48
I1
aI4
aI16
asS'F'
F0.040000000000000001
sS'i'
I0
sS'c'
(F0
F0.34282365314175572
F0.17141182537795649
tp49
sg11
g12
(g13
g14
NtRp50
(dp51
g17
F0.01
sg18
F0.040000000000000001
sS'F'
F0.040000000000000001
sS'k'
F0.059999999999999998
sg19
F0.40000000000000002
sg20
F1
sg21
I4
sbsg22
F1.6000000000000001
sg23
F0.040000000000000001
sS'n'
(lp52
g39
a(iomma_geom
subFace
p53
(dp54
S'V'
F0
sg8
(lp55
I0
aI5
aI8
asS'F'
F0.042500000000000003
sS'i'
I4
sS'c'
(F0
F0.41294325545050947
F0.32525400152107925
tp56
sg11
g12
(g13
g14
NtRp57
(dp58
g17
F0.01
sg18
F0.040000000000000001
sS'F'
F0.040000000000000001
sS'k'
F0.059999999999999998
sg19
F0.40000000000000002
sg20
F1
sg21
I4
sbsg22
F1.6000000000000001
sg23
F0.040000000000000001
sS'n'
(lp59
g46
a(iomma_geom
subFace
p60
(dp61
S'V'
F0
sg8
(lp62
I4
aI6
aI7
asS'F'
F0.043125000000000004
sS'i'
I5
sS'c'
(F0
F0.34114219543664998
F0.39182655169457742
tp63
sg11
g12
(g13
g14
NtRp64
(dp65
g17
F0.01
sg18
F0.040000000000000001
sS'F'
F0.040000000000000001
sS'k'
F0.059999999999999998
sg19
F0.40000000000000002
sg20
F1
sg21
I4
sbsg22
F1.6000000000000001
sg23
F0.040000000000000001
sS'n'
(lp66
g53
a(iomma_geom
subFace
p67
(dp68
S'V'
F0
sg8
(lp69
I3
aI5
aI26
asS'F'
F0.043750000000000004
sS'i'
I6
sS'c'
(F0
F0.20795806604084829
F0.29099033902874905
tp70
sg11
g12
(g13
g14
NtRp71
(dp72
g17
F0.01
sg18
F0.040000000000000001
sS'F'
F0.040000000000000001
sS'k'
F0.059999999999999998
sg19
F0.40000000000000002
sg20
F1
sg21
I4
sbsg22
F1.6000000000000001
sg23
F0.040000000000000001
sS'n'
(lp73
g32
ag60
a(iomma_geom
subFace
p74
(dp75
S'V'
F0
sg8
(lp76
I6
aI25
aI63
asS'F'
F0.056250000000000001
sS'i'
I26
sS'c'
(F0
F0.083032275540503159
F0.29099033806809421
tp77
sg11
g12
(g13
g14
NtRp78
(dp79
g17
F0.01
sg18
F0.040000000000000001
sS'F'
F0.040000000000000001
sS'k'
F0.059999999999999998
sg19
F0.40000000000000002
sg20
F1
sg21
I4
sbsg22
F1.6000000000000001
sg23
F0.040000000000000001
sS'n'
(lp80
g67
a(iomma_geom
subFace
p81
(dp82
S'V'
F0
sg8
(lp83
I24
aI26
aI27
asS'F'
F0.055625000000000001
sS'i'
I25
sS'c'
(F0
F0.050684357704838236
F0.39182655006345402
tp84
sg11
g12
(g13
g14
NtRp85
(dp86
g17
F0.01
sg18
F0.040000000000000001
sS'F'
F0.040000000000000001
sS'k'
F0.059999999999999998
sg19
F0.40000000000000002
sg20
F1
sg21
I4
sbsg22
F1.6000000000000001
sg23
F0.040000000000000001
sS'n'
(lp87
(iomma_geom
subFace
p88
(dp89
S'V'
F0
sg8
(lp90
I7
aI79
aI25
asS'F'
F0.055000000000000007
sS'i'
I24
sS'c'
(F0
F0.15882195729459234
F0.48096815532194642
tp91
sg11
g12
(g13
g14
NtRp92
(dp93
g17
F0.01
sg18
F0.040000000000000001
sS'F'
F0.040000000000000001
sS'k'
F0.059999999999999998
sg19
F0.40000000000000002
sg20
F1
sg21
I4
sbsg22
F1.6000000000000001
sg23
F0.040000000000000001
sS'n'
(lp94
(iomma_geom
subFace
p95
(dp96
S'V'
F0
sg8
(lp97
I5
aI10
aI24
asS'F'
F0.044374999999999998
sS'i'
I7
sS'c'
(F0
F0.32214619890429352
F0.4809681560842029
tp98
sg11
g12
(g13
g14
NtRp99
(dp100
g17
F0.01
sg18
F0.040000000000000001
sS'F'
F0.040000000000000001
sS'k'
F0.059999999999999998
sg19
F0.40000000000000002
sg20
F1
sg21
I4
sbsg22
F1.6000000000000001
sg23
F0.040000000000000001
sS'n'
(lp101
g60
a(iomma_geom
subFace
p102
(dp103
S'V'
F0
sg8
(lp104
I7
aI9
aI30
asS'F'
F0.046249999999999999
sS'i'
I10
sS'c'
(F0
F0.4623941734472618
F0.58705674454949053
tp105
sg11
g12
(g13
g14
NtRp106
(dp107
g17
F0.01
sg18
F0.040000000000000001
sS'F'
F0.040000000000000001
sS'k'
F0.059999999999999998
sg19
F0.40000000000000002
sg20
F1
sg21
I4
sbsg22
F1.6000000000000001
sg23
F0.040000000000000001
sS'n'
(lp108
g95
a(iomma_geom
subFace
p109
(dp110
S'V'
F0
sg8
(lp111
I8
aI10
aI11
asS'F'
F0.045624999999999999
sS'i'
I9
sS'c'
(F0
F0.60817344830542264
F0.52950374206113582
tp112
sg11
g12
(g13
g14
NtRp113
(dp114
g17
F0.01
sg18
F0.040000000000000001
sS'F'
F0.040000000000000001
sS'k'
F0.059999999999999998
sg19
F0.40000000000000002
sg20
F1
sg21
I4
sbsg22
F1.6000000000000001
sg23
F0.040000000000000001
sS'n'
(lp115
(iomma_geom
subFace
p116
(dp117
S'V'
F0
sg8
(lp118
I4
aI9
aI12
asS'F'
F0.044999999999999998
sS'i'
I8
sS'c'
(F0
F0.51903184391579715
F0.34764076064630017
tp119
sg11
g12
(g13
g14
NtRp120
(dp121
g17
F0.01
sg18
F0.040000000000000001
sS'F'
F0.040000000000000001
sS'k'
F0.059999999999999998
sg19
F0.40000000000000002
sg20
F1
sg21
I4
sbsg22
F1.6000000000000001
sg23
F0.040000000000000001
sS'n'
(lp122
g53
ag109
a(iomma_geom
subFace
p123
(dp124
S'V'
F0
sg8
(lp125
I8
aI13
aI16
asS'F'
F0.047500000000000001
sS'i'
I12
sS'c'
(F0
F0.51903184467805363
F0.17139108391659022
tp126
sg11
g12
(g13
g14
NtRp127
(dp128
g17
F0.01
sg18
F0.040000000000000001
sS'F'
F0.040000000000000001
sS'k'
F0.059999999999999998
sg19
F0.40000000000000002
sg20
F1
sg21
I4
sbsg22
F1.6000000000000001
sg23
F0.040000000000000001
sS'n'
(lp129
g116
a(iomma_geom
subFace
p130
(dp131
S'V'
F0
sg8
(lp132
I12
aI14
aI15
asS'F'
F0.048125000000000001
sS'i'
I13
sS'c'
(F0
F0.60817344993654598
F0.078669709028593451
tp133
sg11
g12
(g13
g14
NtRp134
(dp135
g17
F0.01
sg18
F0.040000000000000001
sS'F'
F0.040000000000000001
sS'k'
F0.059999999999999998
sg19
F0.40000000000000002
sg20
F1
sg21
I4
sbsg22
F1.6000000000000001
sg23
F0.040000000000000001
sS'n'
(lp136
g123
a(iomma_geom
subFace
p137
(dp138
S'V'
F0
sg8
(lp139
I38
aI11
aI13
asS'F'
F0.048750000000000002
sS'i'
I14
sS'c'
(F0
F0.70900966193190573
F0.20231147879773503
tp140
sg11
g12
(g13
g14
NtRp141
(dp142
g17
F0.01
sg18
F0.040000000000000001
sS'F'
F0.040000000000000001
sS'k'
F0.059999999999999998
sg19
F0.40000000000000002
sg20
F1
sg21
I4
sbsg22
F1.6000000000000001
sg23
F0.040000000000000001
sS'n'
(lp143
(iomma_geom
subFace
p144
(dp145
S'V'
F0
sg8
(lp146
I75
aI37
aI14
asS'F'
F0.063750000000000001
sS'i'
I38
sS'c'
(F0
F0.8028828160878686
F0.0069289936410488855
tp147
sg11
g12
(g13
g14
NtRp148
(dp149
g17
F0.01
sg18
F0.040000000000000001
sS'F'
F0.040000000000000001
sS'k'
F0.059999999999999998
sg19
F0.40000000000000002
sg20
F1
sg21
I4
sbsg22
F1.6000000000000001
sg23
F0.040000000000000001
sS'n'
(lp150
(iomma_geom
subFace
p151
(dp152
S'V'
F0
sg8
(lp153
I38
aI73
aI28
asS'F'
F0.086875000000000008
sS'i'
I75
sS'c'
(F0
F0.88945587654528835
F0.4447279541588694
tp154
sg11
g12
(g13
g14
NtRp155
(dp156
g17
F0.01
sg18
F0.040000000000000001
sS'F'
F0.040000000000000001
sS'k'
F0.059999999999999998
sg19
F0.40000000000000002
sg20
F1
sg21
I4
sbsg22
F1.6000000000000001
sg23
F0.040000000000000001
sS'n'
(lp157
g144
a(iomma_geom
subFace
p158
(dp159
S'V'
F0
sg8
(lp160
I72
aI74
aI75
asS'F'
F0.085625000000000007
sS'i'
I73
sS'c'
(F0.49999999762840652
F0
F0.99999999525681305
tp161
sg11
g12
(g13
g14
NtRp162
(dp163
g17
F0.01
sg18
F0.040000000000000001
sS'F'
F0.040000000000000001
sS'k'
F0.059999999999999998
sg19
F0.40000000000000002
sg20
F1
sg21
I4
sbsg22
F1.6000000000000001
sg23
F0.040000000000000001
sS'n'
(lp164
(iomma_geom
subFace
p165
(dp166
S'V'
F0
sg8
(lp167
I73
aI55
aI31
asS'F'
F0.084999999999999992
sS'i'
I72
sS'c'
(F0.44472793640643871
F0
F0.88945587281287741
tp168
sg11
g12
(g13
g14
NtRp169
(dp170
g17
F0.01
sg18
F0.040000000000000001
sS'F'
F0.040000000000000001
sS'k'
F0.059999999999999998
sg19
F0.40000000000000002
sg20
F1
sg21
I4
sbsg22
F1.6000000000000001
sg23
F0.040000000000000001
sS'n'
(lp171
g158
a(iomma_geom
subFace
p172
(dp173
S'V'
F0
sg8
(lp174
I72
aI53
aI58
asS'F'
F0.074374999999999997
sS'i'
I55
sS'c'
(F0.79595381830598699
F0
F0.80288281177822773
tp175
sg11
g12
(g13
g14
NtRp176
(dp177
g17
F0.01
sg18
F0.040000000000000001
sS'F'
F0.040000000000000001
sS'k'
F0.059999999999999998
sg19
F0.40000000000000002
sg20
F1
sg21
I4
sbsg22
F1.6000000000000001
sg23
F0.040000000000000001
sS'n'
(lp178
g165
a(iomma_geom
subFace
p179
(dp180
S'V'
F0
sg8
(lp181
I52
aI54
aI55
asS'F'
F0.073124999999999996
sS'i'
I53
sS'c'
(F0.76772047155709311
F0
F0.38386024132746271
tp182
sg11
g12
(g13
g14
NtRp183
(dp184
g17
F0.01
sg18
F0.040000000000000001
sS'F'
F0.040000000000000001
sS'k'
F0.059999999999999998
sg19
F0.40000000000000002
sg20
F1
sg21
I4
sbsg22
F1.6000000000000001
sg23
F0.040000000000000001
sS'n'
(lp185
(iomma_geom
subFace
p186
(dp187
S'V'
F0
sg8
(lp188
I48
aI53
aI56
asS'F'
F0.072500000000000009
sS'i'
I52
sS'c'
(F0.65717634685824433
F0
F0.32858817571589466
tp189
sg11
g12
(g13
g14
NtRp190
(dp191
g17
F0.01
sg18
F0.040000000000000001
sS'F'
F0.040000000000000001
sS'k'
F0.059999999999999998
sg19
F0.40000000000000002
sg20
F1
sg21
I4
sbsg22
F1.6000000000000001
sg23
F0.040000000000000001
sS'n'
(lp192
(iomma_geom
subFace
p193
(dp194
S'V'
F0
sg8
(lp195
I44
aI49
aI52
asS'F'
F0.070000000000000007
sS'i'
I48
sS'c'
(F0.58705674454949053
F0
F0.12466257110222871
tp196
sg11
g12
(g13
g14
NtRp197
(dp198
g17
F0.01
sg18
F0.040000000000000001
sS'F'
F0.040000000000000001
sS'k'
F0.059999999999999998
sg19
F0.40000000000000002
sg20
F1
sg21
I4
sbsg22
F1.6000000000000001
sg23
F0.040000000000000001
sS'n'
(lp199
(iomma_geom
subFace
p200
(dp201
S'V'
F0
sg8
(lp202
I40
aI45
aI48
asS'F'
F0.067500000000000004
sS'i'
I44
sS'c'
(F0.4809681560842029
F0
F0.15882195717990918
tp203
sg11
g12
(g13
g14
NtRp204
(dp205
g17
F0.01
sg18
F0.040000000000000001
sS'F'
F0.040000000000000001
sS'k'
F0.059999999999999998
sg19
F0.40000000000000002
sg20
F1
sg21
I4
sbsg22
F1.6000000000000001
sg23
F0.040000000000000001
sS'n'
(lp206
(iomma_geom
subFace
p207
(dp208
S'V'
F0
sg8
(lp209
I41
aI44
aI56
asS'F'
F0.065000000000000002
sS'i'
I40
sS'c'
(F0.48096815532194642
F0
F0.32214619802735367
tp210
sg11
g12
(g13
g14
NtRp211
(dp212
g17
F0.01
sg18
F0.040000000000000001
sS'F'
F0.040000000000000001
sS'k'
F0.059999999999999998
sg19
F0.40000000000000002
sg20
F1
sg21
I4
sbsg22
F1.6000000000000001
sg23
F0.040000000000000001
sS'n'
(lp213
(iomma_geom
subFace
p214
(dp215
S'V'
F0
sg8
(lp216
I40
aI42
aI43
asS'F'
F0.065625000000000003
sS'i'
I41
sS'c'
(F0.39182655006345402
F0
F0.34114219235861576
tp217
sg11
g12
(g13
g14
NtRp218
(dp219
g17
F0.01
sg18
F0.040000000000000001
sS'F'
F0.040000000000000001
sS'k'
F0.059999999999999998
sg19
F0.40000000000000002
sg20
F1
sg21
I4
sbsg22
F1.6000000000000001
sg23
F0.040000000000000001
sS'n'
(lp220
g207
a(iomma_geom
subFace
p221
(dp222
S'V'
F0
sg8
(lp223
I41
aI59
aI62
asS'F'
F0.066250000000000003
sS'i'
I42
sS'c'
(F0.32525400031719776
F0
F0.41294325252549369
tp224
sg11
g12
(g13
g14
NtRp225
(dp226
g17
F0.01
sg18
F0.040000000000000001
sS'F'
F0.040000000000000001
sS'k'
F0.059999999999999998
sg19
F0.40000000000000002
sg20
F1
sg21
I4
sbsg22
F1.6000000000000001
sg23
F0.040000000000000001
sS'n'
(lp227
g214
a(iomma_geom
subFace
p228
(dp229
S'V'
F0
sg8
(lp230
I42
aI76
aI57
asS'F'
F0.076874999999999999
sS'i'
I59
sS'c'
(F0.34764075818184115
F0
F0.51903184062335561
tp231
sg11
g12
(g13
g14
NtRp232
(dp233
g17
F0.01
sg18
F0.040000000000000001
sS'F'
F0.040000000000000001
sS'k'
F0.059999999999999998
sg19
F0.40000000000000002
sg20
F1
sg21
I4
sbsg22
F1.6000000000000001
sg23
F0.040000000000000001
sS'n'
(lp234
g221
a(iomma_geom
subFace
p235
(dp236
S'V'
F0
sg8
(lp237
I27
aI77
aI59
asS'F'
F0.087499999999999994
sS'i'
I76
sS'c'
(F0.17139108244151444
F0
F0.51903184062335561
tp238
sg11
g12
(g13
g14
NtRp239
(dp240
g17
F0.01
sg18
F0.040000000000000001
sS'F'
F0.040000000000000001
sS'k'
F0.059999999999999998
sg19
F0.40000000000000002
sg20
F1
sg21
I4
sbsg22
F1.6000000000000001
sg23
F0.040000000000000001
sS'n'
(lp241
(iomma_geom
subFace
p242
(dp243
S'V'
F0
sg8
(lp244
I76
aI25
aI62
asS'F'
F0.056875000000000002
sS'i'
I27
sS'c'
(F0.087689252208295945
F0
F0.41294325252549369
tp245
sg11
g12
(g13
g14
NtRp246
(dp247
g17
F0.01
sg18
F0.040000000000000001
sS'F'
F0.040000000000000001
sS'k'
F0.059999999999999998
sg19
F0.40000000000000002
sg20
F1
sg21
I4
sbsg22
F1.6000000000000001
sg23
F0.040000000000000001
sS'n'
(lp248
g235
ag81
a(iomma_geom
subFace
p249
(dp250
S'V'
F0
sg8
(lp251
I42
aI27
aI61
asS'F'
F0.078750000000000001
sS'i'
I62
sS'c'
(F0.17141182470467239
F0
F0.34282364940934479
tp252
sg11
g12
(g13
g14
NtRp253
(dp254
g17
F0.01
sg18
F0.040000000000000001
sS'F'
F0.040000000000000001
sS'k'
F0.059999999999999998
sg19
F0.40000000000000002
sg20
F1
sg21
I4
sbsg22
F1.6000000000000001
sg23
F0.040000000000000001
sS'n'
(lp255
g221
ag242
a(iomma_geom
subFace
p256
(dp257
S'V'
F0
sg8
(lp258
I60
aI62
aI63
asS'F'
F0.078125
sS'i'
I61
sS'c'
(F0.11613976235524806
F0
F0.23227952471049612
tp259
sg11
g12
(g13
g14
NtRp260
(dp261
g17
F0.01
sg18
F0.040000000000000001
sS'F'
F0.040000000000000001
sS'k'
F0.059999999999999998
sg19
F0.40000000000000002
sg20
F1
sg21
I4
sbsg22
F1.6000000000000001
sg23
F0.040000000000000001
sS'n'
(lp262
(iomma_geom
subFace
p263
(dp264
S'V'
F0
sg8
(lp265
I43
aI23
aI61
asS'F'
F0.077499999999999999
sS'i'
I60
sS'c'
(F0.19711718391213146
F0
F0.19541603439628569
tp266
sg11
g12
(g13
g14
NtRp267
(dp268
g17
F0.01
sg18
F0.040000000000000001
sS'F'
F0.040000000000000001
sS'k'
F0.059999999999999998
sg19
F0.40000000000000002
sg20
F1
sg21
I4
sbsg22
F1.6000000000000001
sg23
F0.040000000000000001
sS'n'
(lp269
(iomma_geom
subFace
p270
(dp271
S'V'
F0
sg8
(lp272
I41
aI46
aI60
asS'F'
F0.066875000000000004
sS'i'
I43
sS'c'
(F0.29099033806809421
F0
F0.20795806252759105
tp273
sg11
g12
(g13
g14
NtRp274
(dp275
g17
F0.01
sg18
F0.040000000000000001
sS'F'
F0.040000000000000001
sS'k'
F0.059999999999999998
sg19
F0.40000000000000002
sg20
F1
sg21
I4
sbsg22
F1.6000000000000001
sg23
F0.040000000000000001
sS'n'
(lp276
g214
a(iomma_geom
subFace
p277
(dp278
S'V'
F0
sg8
(lp279
I66
aI43
aI45
asS'F'
F0.068750000000000006
sS'i'
I46
sS'c'
(F0.29099033902874905
F0
F0.083032272987900765
tp280
sg11
g12
(g13
g14
NtRp281
(dp282
g17
F0.01
sg18
F0.040000000000000001
sS'F'
F0.040000000000000001
sS'k'
F0.059999999999999998
sg19
F0.40000000000000002
sg20
F1
sg21
I4
sbsg22
F1.6000000000000001
sg23
F0.040000000000000001
sS'n'
(lp283
(iomma_geom
subFace
p284
(dp285
S'V'
F0
sg8
(lp286
I65
aI46
aI23
asS'F'
F0.081250000000000003
sS'i'
I66
sS'c'
(F0.19711718603322087
F0
F0.0017011464216258024
tp287
sg11
g12
(g13
g14
NtRp288
(dp289
g17
F0.01
sg18
F0.040000000000000001
sS'F'
F0.040000000000000001
sS'k'
F0.059999999999999998
sg19
F0.40000000000000002
sg20
F1
sg21
I4
sbsg22
F1.6000000000000001
sg23
F0.040000000000000001
sS'n'
(lp290
(iomma_geom
subFace
p291
(dp292
S'V'
F0
sg8
(lp293
I64
aI66
aI67
asS'F'
F0.080625000000000002
sS'i'
I65
sS'c'
(F0.232279528442907
F0.11613976590031938
F0
tp294
sg11
g12
(g13
g14
NtRp295
(dp296
g17
F0.01
sg18
F0.040000000000000001
sS'F'
F0.040000000000000001
sS'k'
F0.059999999999999998
sg19
F0.40000000000000002
sg20
F1
sg21
I4
sbsg22
F1.6000000000000001
sg23
F0.040000000000000001
sS'n'
(lp297
(iomma_geom
subFace
p298
(dp299
S'V'
F0
sg8
(lp300
I65
aI35
aI47
asS'F'
F0.080000000000000002
sS'i'
I64
sS'c'
(F0.34282365314175572
F0.17141182776379935
F0
tp301
sg11
g12
(g13
g14
NtRp302
(dp303
g17
F0.01
sg18
F0.040000000000000001
sS'F'
F0.040000000000000001
sS'k'
F0.059999999999999998
sg19
F0.40000000000000002
sg20
F1
sg21
I4
sbsg22
F1.6000000000000001
sg23
F0.040000000000000001
sS'n'
(lp304
g291
a(iomma_geom
subFace
p305
(dp306
S'V'
F0
sg8
(lp307
I64
aI33
aI70
asS'F'
F0.061874999999999999
sS'i'
I35
sS'c'
(F0.41294325672918802
F0.32525400395855675
F0
tp308
sg11
g12
(g13
g14
NtRp309
(dp310
g17
F0.01
sg18
F0.040000000000000001
sS'F'
F0.040000000000000001
sS'k'
F0.059999999999999998
sg19
F0.40000000000000002
sg20
F1
sg21
I4
sbsg22
F1.6000000000000001
sg23
F0.040000000000000001
sS'n'
(lp311
g298
a(iomma_geom
subFace
p312
(dp313
S'V'
F0
sg8
(lp314
I32
aI34
aI35
asS'F'
F0.060624999999999998
sS'i'
I33
sS'c'
(F0.3411421963184515
F0.39182655433379043
F0
tp315
sg11
g12
(g13
g14
NtRp316
(dp317
g17
F0.01
sg18
F0.040000000000000001
sS'F'
F0.040000000000000001
sS'k'
F0.059999999999999998
sg19
F0.40000000000000002
sg20
F1
sg21
I4
sbsg22
F1.6000000000000001
sg23
F0.040000000000000001
sS'n'
(lp318
(iomma_geom
subFace
p319
(dp320
S'V'
F0
sg8
(lp321
I33
aI67
aI19
asS'F'
F0.059999999999999998
sS'i'
I32
sS'c'
(F0.20795806632476099
F0.2909903421869306
F0
tp322
sg11
g12
(g13
g14
NtRp323
(dp324
g17
F0.01
sg18
F0.040000000000000001
sS'F'
F0.040000000000000001
sS'k'
F0.059999999999999998
sg19
F0.40000000000000002
sg20
F1
sg21
I4
sbsg22
F1.6000000000000001
sg23
F0.040000000000000001
sS'n'
(lp325
g312
a(iomma_geom
subFace
p326
(dp327
S'V'
F0
sg8
(lp328
I32
aI65
aI22
asS'F'
F0.081875000000000003
sS'i'
I67
sS'c'
(F0.19541603870104704
F0.19711718822177224
F0
tp329
sg11
g12
(g13
g14
NtRp330
(dp331
g17
F0.01
sg18
F0.040000000000000001
sS'F'
F0.040000000000000001
sS'k'
F0.059999999999999998
sg19
F0.40000000000000002
sg20
F1
sg21
I4
sbsg22
F1.6000000000000001
sg23
F0.040000000000000001
sS'n'
(lp332
g319
ag291
a(iomma_geom
subFace
p333
(dp334
S'V'
F0
sg8
(lp335
I2
aI67
aI21
asS'F'
F0.053750000000000006
sS'i'
I22
sS'c'
(F0.055272063593561342
F0.11054412718712268
F0
tp336
sg11
g12
(g13
g14
NtRp337
(dp338
g17
F0.01
sg18
F0.040000000000000001
sS'F'
F0.040000000000000001
sS'k'
F0.059999999999999998
sg19
F0.40000000000000002
sg20
F1
sg21
I4
sbsg22
F1.6000000000000001
sg23
F0.040000000000000001
sS'n'
(lp339
(iomma_geom
subFace
p340
(dp341
S'V'
F0
sg8
(lp342
I1
aI19
aI22
asS'F'
F0.041250000000000002
sS'i'
I2
sS'c'
(F0.0017011495207252102
F0.19711718822177224
F0
tp343
sg11
g12
(g13
g14
NtRp344
(dp345
g17
F0.01
sg18
F0.040000000000000001
sS'F'
F0.040000000000000001
sS'k'
F0.059999999999999998
sg19
F0.40000000000000002
sg20
F1
sg21
I4
sbsg22
F1.6000000000000001
sg23
F0.040000000000000001
sS'n'
(lp346
g39
a(iomma_geom
subFace
p347
(dp348
S'V'
F0
sg8
(lp349
I32
aI2
aI17
asS'F'
F0.051875000000000004
sS'i'
I19
sS'c'
(F0.083032275862169658
F0.2909903421869306
F0
tp350
sg11
g12
(g13
g14
NtRp351
(dp352
g17
F0.01
sg18
F0.040000000000000001
sS'F'
F0.040000000000000001
sS'k'
F0.059999999999999998
sg19
F0.40000000000000002
sg20
F1
sg21
I4
sbsg22
F1.6000000000000001
sg23
F0.040000000000000001
sS'n'
(lp353
g319
ag340
a(iomma_geom
subFace
p354
(dp355
S'V'
F0
sg8
(lp356
I16
aI18
aI19
asS'F'
F0.050625000000000003
sS'i'
I17
sS'c'
(F0.050684358015339
F0.39182655433379043
F0
tp357
sg11
g12
(g13
g14
NtRp358
(dp359
g17
F0.01
sg18
F0.040000000000000001
sS'F'
F0.040000000000000001
sS'k'
F0.059999999999999998
sg19
F0.40000000000000002
sg20
F1
sg21
I4
sbsg22
F1.6000000000000001
sg23
F0.040000000000000001
sS'n'
(lp360
(iomma_geom
subFace
p361
(dp362
S'V'
F0
sg8
(lp363
I0
aI12
aI17
asS'F'
F0.050000000000000003
sS'i'
I16
sS'c'
(F0
F0.41294325672918802
F0.087689252770631165
tp364
sg11
g12
(g13
g14
NtRp365
(dp366
g17
F0.01
sg18
F0.040000000000000001
sS'F'
F0.040000000000000001
sS'k'
F0.059999999999999998
sg19
F0.40000000000000002
sg20
F1
sg21
I4
sbsg22
F1.6000000000000001
sg23
F0.040000000000000001
sS'n'
(lp367
g46
ag123
ag354
asS'nextU'
p368
F0
sS'nextV'
p369
F0
sS'U'
F0
sS'th'
p370
F1.297299501689861
sS'v'
(lp371
g12
(comma_geom
Vertex
p372
g14
NtRp373
(dp374
S'y'
F0.85065080835203999
sS'x'
F-0.49112347465486023
sS'z'
F0.18759247024589748
sS'i'
I0
sbag12
(g372
g14
NtRp375
(dp376
S'y'
F0.5
sS'x'
F-0.8660254037844386
sS'z'
F-6.7698444320124675e-09
sbag12
(g372
g14
NtRp377
(dp378
S'y'
F0.5
sS'x'
F-0.64549722888113248
sS'z'
F0.57735026414368162
sbasS'lat'
p379
F1.297299501689861
sS'lng'
p380
F-0.82482324365853765
sS'dcU'
p381
F0.16
sS'ph'
p382
F-0.82482324365853765
sS'nv'
p383
g12
(g372
g14
NtRp384
(dp385
S'y'
F0.6534615590031112
sS'x'
F-0.70713083284817213
sS'z'
F0.27009993732075155
sbsba(iomma_geom
subFace
p386
(dp387
S'V'
F0
sg8
(lp388
I34
aI15
aI17
asS'F'
F0.051250000000000004
sS'i'
I18
sS'c'
(F0.15882195850733022
F0.48096815937664444
F0
tp389
sg11
g12
(g13
g14
NtRp390
(dp391
g17
F0.01
sg18
F0.040000000000000001
sS'F'
F0.040000000000000001
sS'k'
F0.059999999999999998
sg19
F0.40000000000000002
sg20
F1
sg21
I4
sbsg22
F1.6000000000000001
sg23
F0.040000000000000001
sS'n'
(lp392
(iomma_geom
subFace
p393
(dp394
S'V'
F0
sg8
(lp395
I33
aI71
aI18
asS'F'
F0.061249999999999999
sS'i'
I34
sS'c'
(F0.32214620086931423
F0.48096815937664444
F0
tp396
sg11
g12
(g13
g14
NtRp397
(dp398
g17
F0.01
sg18
F0.040000000000000001
sS'F'
F0.040000000000000001
sS'k'
F0.059999999999999998
sg19
F0.40000000000000002
sg20
F1
sg21
I4
sbsg22
F1.6000000000000001
sg23
F0.040000000000000001
sS'n'
(lp399
g312
a(iomma_geom
subFace
p400
(dp401
S'V'
F0
sg8
(lp402
I34
aI36
aI69
asS'F'
F0.084375000000000006
sS'i'
I71
sS'c'
(F0.4623941773149523
F0.58705674747450631
F0
tp403
sg11
g12
(g13
g14
NtRp404
(dp405
g17
F0.01
sg18
F0.040000000000000001
sS'F'
F0.040000000000000001
sS'k'
F0.059999999999999998
sg19
F0.40000000000000002
sg20
F1
sg21
I4
sbsg22
F1.6000000000000001
sg23
F0.040000000000000001
sS'n'
(lp406
g393
a(iomma_geom
subFace
p407
(dp408
S'V'
F0
sg8
(lp409
I37
aI71
aI15
asS'F'
F0.0625
sS'i'
I36
sS'c'
(F0.32858817529532763
F0.65717635059065527
F0
tp410
sg11
g12
(g13
g14
NtRp411
(dp412
g17
F0.01
sg18
F0.040000000000000001
sS'F'
F0.040000000000000001
sS'k'
F0.059999999999999998
sg19
F0.40000000000000002
sg20
F1
sg21
I4
sbsg22
F1.6000000000000001
sg23
F0.040000000000000001
sS'n'
(lp413
(iomma_geom
subFace
p414
(dp415
S'V'
F0
sg8
(lp416
I36
aI38
aI39
asS'F'
F0.063125000000000001
sS'i'
I37
sS'c'
(F0.38386023764475197
F0.76772047528950393
F0
tp417
sg11
g12
(g13
g14
NtRp418
(dp419
g17
F0.01
sg18
F0.040000000000000001
sS'F'
F0.040000000000000001
sS'k'
F0.059999999999999998
sg19
F0.40000000000000002
sg20
F1
sg21
I4
sbsg22
F1.6000000000000001
sg23
F0.040000000000000001
sS'n'
(lp420
g407
ag144
a(iomma_geom
subFace
p421
(dp422
S'V'
F0
sg8
(lp423
I68
aI37
aI74
asS'F'
F0.064375000000000002
sS'i'
I39
sS'c'
(F0.80288281608786849
F0.79595382244681956
F0
tp424
sg11
g12
(g13
g14
NtRp425
(dp426
g17
F0.01
sg18
F0.040000000000000001
sS'F'
F0.040000000000000001
sS'k'
F0.059999999999999998
sg19
F0.40000000000000002
sg20
F1
sg21
I4
sbsg22
F1.6000000000000001
sg23
F0.040000000000000001
sS'n'
(lp427
(iomma_geom
subFace
p428
(dp429
S'V'
F0
sg8
(lp430
I69
aI39
aI51
asS'F'
F0.082500000000000004
sS'i'
I68
sS'c'
(F0.70900966193190573
F0.50669818313417081
F0
tp431
sg11
g12
(g13
g14
NtRp432
(dp433
g17
F0.01
sg18
F0.040000000000000001
sS'F'
F0.040000000000000001
sS'k'
F0.059999999999999998
sg19
F0.40000000000000002
sg20
F1
sg21
I4
sbsg22
F1.6000000000000001
sg23
F0.040000000000000001
sS'n'
(lp434
(iomma_geom
subFace
p435
(dp436
S'V'
F0
sg8
(lp437
I68
aI70
aI71
asS'F'
F0.083125000000000004
sS'i'
I69
sS'c'
(F0.60817344993654598
F0.52950374090795249
F0
tp438
sg11
g12
(g13
g14
NtRp439
(dp440
g17
F0.01
sg18
F0.040000000000000001
sS'F'
F0.040000000000000001
sS'k'
F0.059999999999999998
sg19
F0.40000000000000002
sg20
F1
sg21
I4
sbsg22
F1.6000000000000001
sg23
F0.040000000000000001
sS'n'
(lp441
g428
a(iomma_geom
subFace
p442
(dp443
S'V'
F0
sg8
(lp444
I35
aI69
aI50
asS'F'
F0.083749999999999991
sS'i'
I70
sS'c'
(F0.51903184467805363
F0.34764076076146322
F0
tp445
sg11
g12
(g13
g14
NtRp446
(dp447
g17
F0.01
sg18
F0.040000000000000001
sS'F'
F0.040000000000000001
sS'k'
F0.059999999999999998
sg19
F0.40000000000000002
sg20
F1
sg21
I4
sbsg22
F1.6000000000000001
sg23
F0.040000000000000001
sS'n'
(lp448
g305
ag435
a(iomma_geom
subFace
p449
(dp450
S'V'
F0
sg8
(lp451
I70
aI47
aI49
asS'F'
F0.071250000000000008
sS'i'
I50
sS'c'
(F0.51903184391579715
F0.17139108326949704
F0
tp452
sg11
g12
(g13
g14
NtRp453
(dp454
g17
F0.01
sg18
F0.040000000000000001
sS'F'
F0.040000000000000001
sS'k'
F0.059999999999999998
sg19
F0.40000000000000002
sg20
F1
sg21
I4
sbsg22
F1.6000000000000001
sg23
F0.040000000000000001
sS'n'
(lp455
g442
a(iomma_geom
subFace
p456
(dp457
S'V'
F0
sg8
(lp458
I64
aI45
aI50
asS'F'
F0.069375000000000006
sS'i'
I47
sS'c'
(F0.41294325545050947
F0.087689253929430139
F0
tp459
sg11
g12
(g13
g14
NtRp460
(dp461
g17
F0.01
sg18
F0.040000000000000001
sS'F'
F0.040000000000000001
sS'k'
F0.059999999999999998
sg19
F0.40000000000000002
sg20
F1
sg21
I4
sbsg22
F1.6000000000000001
sg23
F0.040000000000000001
sS'n'
(lp462
g298
a(iomma_geom
subFace
p463
(dp464
S'V'
F0
sg8
(lp465
I44
aI46
aI47
asS'F'
F0.068125000000000005
sS'i'
I45
sS'c'
(F0.39182655169457742
F0
F0.050684356257927457
tp466
sg11
g12
(g13
g14
NtRp467
(dp468
g17
F0.01
sg18
F0.040000000000000001
sS'F'
F0.040000000000000001
sS'k'
F0.059999999999999998
sg19
F0.40000000000000002
sg20
F1
sg21
I4
sbsg22
F1.6000000000000001
sg23
F0.040000000000000001
sS'n'
(lp469
g200
ag277
ag456
asg368
F0
sg369
F0
sS'U'
F0
sg370
F1.2309594162851056
sS'v'
(lp470
g12
(g372
g14
NtRp471
(dp472
S'y'
F-0.80901699437494734
sS'x'
F0.46708617669202851
sS'z'
F0.35682209342436938
sbag12
(g372
g14
NtRp473
(dp474
S'y'
F-0.80901699437494745
sS'x'
F-0.11026409422149756
sS'z'
F0.57735026832767555
sbag12
(g372
g14
NtRp475
(dp476
S'y'
F-1
sS'x'
F0
sS'z'
F0
sbasg379
F1.2309594162851056
sg380
F3.0061333961001426
sg381
F0.16
sg382
F3.0061333961001426
sg383
g12
(g372
g14
NtRp477
(dp478
S'y'
F-0.93417235896271567
sS'x'
F0.12732200114432068
sS'z'
F0.33333333432862761
sbsbag449
asg368
F0
sg369
F0
sS'U'
F0
sg370
F1.2972994976727739
sS'v'
(lp479
g473
ag12
(g372
g14
NtRp480
(dp481
S'y'
F-0.85065080835203999
sS'x'
F-0.49112347465486023
sS'z'
F0.18759247024589748
sS'i'
I2
sbag475
asg379
F1.2972994976727739
sg380
F-2.9192183424245117
sg381
F0.16
sg382
F-2.9192183424245117
sg383
g12
(g372
g14
NtRp482
(dp483
S'y'
F-0.93912404271878569
sS'x'
F-0.21234889723630695
sS'z'
F0.27009994118853264
sbsba(iomma_geom
subFace
p484
(dp485
S'V'
F0
sg8
(lp486
I48
aI50
aI51
asS'F'
F0.070625000000000007
sS'i'
I49
sS'c'
(F0.60817344830542264
F0.078669706244286819
F0
tp487
sg11
g12
(g13
g14
NtRp488
(dp489
g17
F0.01
sg18
F0.040000000000000001
sS'F'
F0.040000000000000001
sS'k'
F0.059999999999999998
sg19
F0.40000000000000002
sg20
F1
sg21
I4
sbsg22
F1.6000000000000001
sg23
F0.040000000000000001
sS'n'
(lp490
g193
ag449
a(iomma_geom
subFace
p491
(dp492
S'V'
F0
sg8
(lp493
I68
aI49
aI54
asS'F'
F0.071874999999999994
sS'i'
I51
sS'c'
(F0.70900966097125095
F0.20231147163620292
F0
tp494
sg11
g12
(g13
g14
NtRp495
(dp496
g17
F0.01
sg18
F0.040000000000000001
sS'F'
F0.040000000000000001
sS'k'
F0.059999999999999998
sg19
F0.40000000000000002
sg20
F1
sg21
I4
sbsg22
F1.6000000000000001
sg23
F0.040000000000000001
sS'n'
(lp497
g428
ag484
a(iomma_geom
subFace
p498
(dp499
S'V'
F0
sg8
(lp500
I74
aI51
aI53
asS'F'
F0.07375000000000001
sS'i'
I54
sS'c'
(F0.80288281396677919
F0.0069289809450423945
F0
tp501
sg11
g12
(g13
g14
NtRp502
(dp503
g17
F0.01
sg18
F0.040000000000000001
sS'F'
F0.040000000000000001
sS'k'
F0.059999999999999998
sg19
F0.40000000000000002
sg20
F1
sg21
I4
sbsg22
F1.6000000000000001
sg23
F0.040000000000000001
sS'n'
(lp504
(iomma_geom
subFace
p505
(dp506
S'V'
F0
sg8
(lp507
I39
aI73
aI54
asS'F'
F0.086249999999999993
sS'i'
I74
sS'c'
(F0.88945587654528835
F0.44472792238641917
F0
tp508
sg11
g12
(g13
g14
NtRp509
(dp510
g17
F0.01
sg18
F0.040000000000000001
sS'F'
F0.040000000000000001
sS'k'
F0.059999999999999998
sg19
F0.40000000000000002
sg20
F1
sg21
I4
sbsg22
F1.6000000000000001
sg23
F0.040000000000000001
sS'n'
(lp511
g421
ag158
ag498
asg368
F0
sg369
F0
sS'U'
F0
sg370
F2.7943080474469477
sS'v'
(lp512
g12
(g372
g14
NtRp513
(dp514
S'y'
F-0.3090169943749474
sS'x'
F0.17841105218910391
sS'z'
F-0.93417235756805106
sbag12
(g372
g14
NtRp515
(dp516
S'y'
F-0.52573111211913359
sS'x'
F-0.30353099289141544
sS'z'
F-0.79465447466451133
sS'i'
I6
sbag12
(g372
g14
NtRp517
(dp518
S'y'
F0
sS'x'
F-0.35682208247053099
sS'z'
F-0.93417236175204499
sbasg379
F2.7943080474469477
sg380
F-2.617993896695082
sg381
F0.16
sg382
F-2.617993896695082
sg383
g12
(g372
g14
NtRp519
(dp520
S'y'
F-0.29474809433674326
sS'x'
F-0.17017288425798563
sS'z'
F-0.94030035113689958
sbsbag491
ag179
asg368
F0
sg369
F0
sS'U'
F0
sg370
F2.522330750051534
sS'v'
(lp521
g12
(g372
g14
NtRp522
(dp523
S'y'
F-0.80901699437494745
sS'x'
F0.11026409422149756
sS'z'
F-0.57735026832767555
sbag515
ag12
(g372
g14
NtRp524
(dp525
S'y'
F-0.3090169943749474
sS'x'
F0.17841105218910391
sS'z'
F-0.93417235756805106
sbasg379
F2.522330750051534
sg380
F-3.1325552053449033
sg381
F0.16
sg382
F-3.1325552053449033
sg383
g12
(g372
g14
NtRp526
(dp527
S'y'
F-0.5804105780524178
sS'x'
F-0.0052455733722711652
sS'z'
F-0.81430709492479214
sbsbasg368
F0
sg369
F0
sS'U'
F0
sg370
F2.227419542231472
sS'v'
(lp528
g12
(g372
g14
NtRp529
(dp530
S'y'
F-0.80901699437494734
sS'x'
F-0.46708617669202851
sS'z'
F-0.35682209342436938
sbag515
ag12
(g372
g14
NtRp531
(dp532
S'y'
F-0.80901699437494745
sS'x'
F0.11026409422149756
sS'z'
F-0.57735026832767555
sbasg379
F2.227419542231472
sg380
F-2.8427813829701645
sg381
F0.16
sg382
F-2.8427813829701645
sg383
g12
(g372
g14
NtRp533
(dp534
S'y'
F-0.756959702299418
sS'x'
F-0.23316951429792993
sS'z'
F-0.61044572788810969
sbsbasg368
F0
sg369
F0
sS'U'
F0
sg370
F1.9106332373046875
sS'v'
(lp535
g12
(g372
g14
NtRp536
(dp537
S'y'
F-1
sS'x'
F0
sS'z'
F0
sbag529
ag531
asg379
F1.9106332373046875
sg380
F-3.0061333961001426
sg381
F0.16
sg382
F-3.0061333961001426
sg383
g12
(g372
g14
NtRp538
(dp539
S'y'
F-0.93417235896271567
sS'x'
F-0.12732200114432068
sS'z'
F-0.33333333432862761
sbsbasg368
F0
sg369
F0
sS'U'
F0
sg370
F1.6305866278250325
sS'v'
(lp540
g536
ag480
ag529
asg379
F1.6305866278250325
sg380
F-2.7957943662579918
sg381
F0.16
sg382
F-2.7957943662579918
sg383
g12
(g372
g14
NtRp541
(dp542
S'y'
F-0.93912404271878569
sS'x'
F-0.33834214958063319
sS'z'
F-0.05975468353761812
sbsbasg368
F0
sg369
F0
sS'U'
F0
sg370
F1.6305866302197318
sS'v'
(lp543
g12
(g372
g14
NtRp544
(dp545
S'y'
F-0.80901699437494734
sS'x'
F-0.46708617669202851
sS'z'
F-0.35682209342436938
sbag480
ag12
(g372
g14
NtRp546
(dp547
S'y'
F-0.5
sS'x'
F-0.8660254037844386
sS'z'
F-6.7698444320124675e-09
sbasg379
F1.6305866302197318
sg380
F-2.4401933905227273
sg381
F0.16
sg382
F-2.4401933905227273
sg383
g12
(g372
g14
NtRp548
(dp549
S'y'
F-0.7625749184717856
sS'x'
F-0.64413420280822786
sS'z'
F-0.059754685928038329
sbsbag400
asg368
F0
sg369
F0
sS'U'
F0
sg370
F1.9106332424290127
sS'v'
(lp550
g544
ag546
ag12
(g372
g14
NtRp551
(dp552
S'y'
F-0.30901699437494745
sS'x'
F-0.75576130956294107
sS'z'
F-0.57735027509752013
sbasg379
F1.9106332424290127
sg380
F-2.2298543643137667
sg381
F0.16
sg382
F-2.2298543643137667
sg383
g12
(g372
g14
NtRp553
(dp554
S'y'
F-0.57735026918962573
sS'x'
F-0.74535598989421548
sS'z'
F-0.33333333915988772
sbsbag421
ag491
asg368
F0
sg369
F0
sS'U'
F0
sg370
F2.2274195452494578
sS'v'
(lp555
g515
ag544
ag551
asg379
F2.2274195452494578
sg380
F-2.3932063831854418
sg381
F0.16
sg382
F-2.3932063831854418
sg383
g12
(g372
g14
NtRp556
(dp557
S'y'
F-0.5804105780524178
sS'x'
F-0.5389615675255246
sS'z'
F-0.61044573027853
sbsbag414
ag505
asg368
F0
sg369
F0
sS'U'
F0
sg370
F2.5223307567151325
sS'v'
(lp558
g12
(g372
g14
NtRp559
(dp560
S'y'
F0
sS'x'
F-0.35682208247053099
sS'z'
F-0.93417236175204499
sbag515
ag12
(g372
g14
NtRp561
(dp562
S'y'
F-0.30901699437494745
sS'x'
F-0.75576130956294107
sS'z'
F-0.57735027509752013
sbasg379
F2.5223307567151325
sg380
F-2.1034325671735714
sg381
F0.16
sg382
F-2.1034325671735714
sg383
g12
(g372
g14
NtRp563
(dp564
S'y'
F-0.29474809433674332
sS'x'
F-0.50002750898413639
sS'z'
F-0.81430709879257324
sbsbasg368
F0
sg369
F0
sS'U'
F0
sg370
F2.4118650051799699
sS'v'
(lp565
g12
(g372
g14
NtRp566
(dp567
S'y'
F0.30901699437494745
sS'x'
F-0.75576130956294107
sS'z'
F-0.57735027509752013
sbag559
ag561
asg379
F2.4118650051799699
sg380
F-1.5707963267948966
sg381
F0.16
sg382
F-1.5707963267948966
sg383
g12
(g372
g14
NtRp568
(dp569
S'y'
F0
sS'x'
F-0.66666666084011217
sS'z'
F-0.74535599771135852
sbsbag400
a(iomma_geom
subFace
p570
(dp571
S'V'
F0
sg8
(lp572
I36
aI13
aI18
asS'F'
F0.049375000000000002
sS'i'
I15
sS'c'
(F0.12466257015955413
F0.58705674747450631
F0
tp573
sg11
g12
(g13
g14
NtRp574
(dp575
g17
F0.01
sg18
F0.040000000000000001
sS'F'
F0.040000000000000001
sS'k'
F0.059999999999999998
sg19
F0.40000000000000002
sg20
F1
sg21
I4
sbsg22
F1.6000000000000001
sg23
F0.040000000000000001
sS'n'
(lp576
g407
ag130
ag386
asg368
F0
sg369
F0
sS'U'
F0
sg370
F1.8442931651062273
sS'v'
(lp577
g12
(g372
g14
NtRp578
(dp579
S'y'
F0.30901699437494745
sS'x'
F-0.75576130956294107
sS'z'
F-0.57735027509752013
sbag12
(g372
g14
NtRp580
(dp581
S'y'
F0
sS'x'
F-0.98224694491040876
sS'z'
F-0.18759248176344476
sS'i'
I10
sbag12
(g372
g14
NtRp582
(dp583
S'y'
F0.5
sS'x'
F-0.8660254037844386
sS'z'
F-6.7698444320124675e-09
sbasg379
F1.8442931651062273
sg380
F-1.2695718595723451
sg381
F0.16
sg382
F-1.2695718595723451
sg383
g12
(g372
g14
NtRp584
(dp585
S'y'
F0.28566248371567449
sS'x'
F-0.91947972375024933
sS'z'
F-0.27009995003619891
sbsbasg368
F0
sg369
F0
sS'U'
F0
sg370
F2.0645803951285528
sS'v'
(lp586
g580
ag566
ag561
asg379
F2.0645803951285528
sg380
F-1.5707963267948966
sg381
F0.16
sg382
F-1.5707963267948966
sg383
g12
(g372
g14
NtRp587
(dp588
S'y'
F0
sS'x'
F-0.88054566520886124
sS'z'
F-0.47396131855024232
sbsbag435
asg368
F0
sg369
F0
sS'U'
F0
sg370
F1.8442931651062273
sS'v'
(lp589
g546
ag580
ag551
asg379
F1.8442931651062273
sg380
F-1.8720207940174483
sg381
F0.16
sg382
F-1.8720207940174483
sg383
g12
(g372
g14
NtRp590
(dp591
S'y'
F-0.28566248371567449
sS'x'
F-0.91947972375024944
sS'z'
F-0.27009995003619891
sbsbag386
asg368
F0
sg369
F0
sS'U'
F0
sg370
F1.5110060361082709
sS'v'
(lp592
g12
(g372
g14
NtRp593
(dp594
S'y'
F0
sS'x'
F-0.93417236175204499
sS'z'
F0.35682208247053099
sbag580
ag12
(g372
g14
NtRp595
(dp596
S'y'
F-0.5
sS'x'
F-0.8660254037844386
sS'z'
F-6.7698444320124675e-09
sbasg379
F1.5110060361082709
sg380
F-1.7485968145383837
sg381
F0.16
sg382
F-1.7485968145383837
sg383
g12
(g372
g14
NtRp597
(dp598
S'y'
F-0.1765491242470002
sS'x'
F-0.98247635379019371
sS'z'
F0.059754673212590981
sbsbag570
ag354
asg368
F0
sg369
F0
sS'U'
F0
sg370
F1.5110060361082709
sS'v'
(lp599
g375
ag580
ag12
(g372
g14
NtRp600
(dp601
S'y'
F0
sS'x'
F-0.93417236175204499
sS'z'
F0.35682208247053099
sbasg379
F1.5110060361082709
sg380
F-1.3929958390514094
sg381
F0.16
sg382
F-1.3929958390514094
sg383
g12
(g372
g14
NtRp602
(dp603
S'y'
F0.1765491242470002
sS'x'
F-0.98247635379019371
sS'z'
F0.059754673212590981
sbsbag347
asg368
F0
sg369
F0
sS'U'
F0
sg370
F1.2309594245764379
sS'v'
(lp604
g375
ag600
ag377
asg379
F1.2309594245764379
sg380
F-1.1826568124707064
sg381
F0.16
sg382
F-1.1826568124707064
sg383
g12
(g372
g14
NtRp605
(dp606
S'y'
F0.35682208977308988
sS'x'
F-0.87267799885567932
sS'z'
F0.33333332651148462
sbsbasg368
F0
sg369
F0
sS'U'
F0
sg370
F0.91417312128004125
sS'v'
(lp607
g600
ag12
(g372
g14
NtRp608
(dp609
S'y'
F0
sS'x'
F-0.60706200441861391
sS'z'
F0.79465446754627567
sS'i'
I11
sbag377
asg379
F0.91417312128004125
sg380
F-1.346008828916899
sg381
F0.16
sg382
F-1.346008828916899
sg383
g12
(g372
g14
NtRp610
(dp611
S'y'
F0.1765491242470002
sS'x'
F-0.77213109613927922
sS'z'
F0.61044572002953112
sbsbag333
asg368
F0
sg369
F0
sS'U'
F0
sg370
F0.61926191041379619
sS'v'
(lp612
g12
(g372
g14
NtRp613
(dp614
S'y'
F0.5
sS'x'
F-0.64549722888113248
sS'z'
F0.57735026414368162
sbag608
ag12
(g372
g14
NtRp615
(dp616
S'y'
F0.3090169943749474
sS'x'
F-0.17841105218910391
sS'z'
F0.93417235756805106
sbasg379
F0.61926191041379619
sg380
F-1.0562350158053078
sg381
F0.16
sg382
F-1.0562350158053078
sg383
g12
(g372
g14
NtRp617
(dp618
S'y'
F0.28566248371567449
sS'x'
F-0.50527310145307269
sS'z'
F0.81430709093399478
sbsbag326
ag6
asg368
F0
sg369
F0
sS'U'
F0
sg370
F0.34728461786856035
sS'v'
(lp619
g12
(g372
g14
NtRp620
(dp621
S'y'
F0.3090169943749474
sS'x'
F-0.17841105218910391
sS'z'
F0.93417235756805106
sbag608
ag12
(g372
g14
NtRp622
(dp623
S'y'
F-0.3090169943749474
sS'x'
F-0.17841105218910391
sS'z'
F0.93417235756805106
sbasg379
F0.34728461786856035
sg380
F-1.5707963267948966
sg381
F0.16
sg382
F-1.5707963267948966
sg383
g12
(g372
g14
NtRp624
(dp625
S'y'
F0
sS'x'
F-0.3403457905673582
sS'z'
F0.940300347146102
sbsbasg368
F0
sg369
F0
sS'U'
F0
sg370
F0.61926191041379619
sS'v'
(lp626
g12
(g372
g14
NtRp627
(dp628
S'y'
F-0.3090169943749474
sS'x'
F-0.17841105218910391
sS'z'
F0.93417235756805106
sbag608
ag12
(g372
g14
NtRp629
(dp630
S'y'
F-0.5
sS'x'
F-0.64549722888113248
sS'z'
F0.57735026414368162
sbasg379
F0.61926191041379619
sg380
F-2.0853576377844854
sg381
F0.16
sg382
F-2.0853576377844854
sg383
g12
(g372
g14
NtRp631
(dp632
S'y'
F-0.28566248371567449
sS'x'
F-0.50527310145307269
sS'z'
F0.81430709093399478
sbsbag347
asg368
F0
sg369
F0
sS'U'
F0
sg370
F0.91417312128004125
sS'v'
(lp633
g608
ag593
ag12
(g372
g14
NtRp634
(dp635
S'y'
F-0.5
sS'x'
F-0.64549722888113248
sS'z'
F0.57735026414368162
sbasg379
F0.91417312128004125
sg380
F-1.7955838246728943
sg381
F0.16
sg382
F-1.7955838246728943
sg383
g12
(g372
g14
NtRp636
(dp637
S'y'
F-0.1765491242470002
sS'x'
F-0.77213109613927922
sS'z'
F0.61044572002953112
sbsbag393
ag305
asg368
F0
sg369
F0
sS'U'
F0
sg370
F1.2309594245764379
sS'v'
(lp638
g593
ag595
ag634
asg379
F1.2309594245764379
sg380
F-1.9589358411190869
sg381
F0.16
sg382
F-1.9589358411190869
sg383
g12
(g372
g14
NtRp639
(dp640
S'y'
F-0.35682208977308988
sS'x'
F-0.87267799885567932
sS'z'
F0.33333332651148462
sbsbag442
asg368
F0
sg369
F0
sS'U'
F0
sg370
F1.297299501689861
sS'v'
(lp641
g595
ag480
ag634
asg379
F1.297299501689861
sg380
F-2.3167694099312555
sg381
F0.16
sg382
F-2.3167694099312555
sg383
g12
(g372
g14
NtRp642
(dp643
S'y'
F-0.6534615590031112
sS'x'
F-0.70713083284817213
sS'z'
F0.27009993732075155
sbsbag456
asg368
F0
sg369
F0
sS'U'
F0
sg370
F1.0770122701869551
sS'v'
(lp644
g480
ag12
(g372
g14
NtRp645
(dp646
S'y'
F-0.80901699437494745
sS'x'
F-0.11026409422149756
sS'z'
F0.57735026832767555
sbag629
asg379
F1.0770122701869551
sg380
F-2.617993874347567
sg381
F0.16
sg382
F-2.617993874347567
sg383
g12
(g372
g14
NtRp647
(dp648
S'y'
F-0.7625749184717856
sS'x'
F-0.44027283816196572
sS'z'
F0.47396130822521509
sbsbag284
ag326
asg368
F0
sg369
F0
sS'U'
F0
sg370
F0.72972766013553803
sS'v'
(lp649
g645
ag627
ag629
asg379
F0.72972766013553803
sg380
F-2.6179938704225783
sg381
F0.16
sg382
F-2.6179938704225783
sg383
g12
(g372
g14
NtRp650
(dp651
S'y'
F-0.57735026918962573
sS'x'
F-0.33333333915988772
sS'z'
F0.74535598989421548
sbsbag277
a(iomma_geom
subFace
p652
(dp653
S'V'
F0
sg8
(lp654
I66
aI21
aI60
asS'F'
F0.054375000000000007
sS'i'
I23
sS'c'
(F0.11054412345471176
F0
F0.055272059752970316
tp655
sg11
g12
(g13
g14
NtRp656
(dp657
g17
F0.01
sg18
F0.040000000000000001
sS'F'
F0.040000000000000001
sS'k'
F0.059999999999999998
sg19
F0.40000000000000002
sg20
F1
sg21
I4
sbsg22
F1.6000000000000001
sg23
F0.040000000000000001
sS'n'
(lp658
g284
ag6
ag263
asg368
F0
sg369
F0
sS'U'
F0
sg370
F0.34728460614284562
sS'v'
(lp659
g622
ag12
(g372
g14
NtRp660
(dp661
S'y'
F-0.52573111211913359
sS'x'
F0.30353099289141544
sS'z'
F0.79465447466451133
sS'i'
I4
sbag12
(g372
g14
NtRp662
(dp663
S'y'
F0
sS'x'
F0.35682208247053099
sS'z'
F0.93417236175204499
sbasg379
F0.34728460614284562
sg380
F2.617993896695082
sg381
F0.16
sg382
F2.617993896695082
sg383
g12
(g372
g14
NtRp664
(dp665
S'y'
F-0.29474809433674326
sS'x'
F0.17017288425798563
sS'z'
F0.94030035113689958
sbsbasg368
F0
sg369
F0
sS'U'
F0
sg370
F0.61926190353825927
sS'v'
(lp666
g645
ag660
ag627
asg379
F0.61926190353825927
sg380
F3.1325552053449033
sg381
F0.16
sg382
F3.1325552053449033
sg383
g12
(g372
g14
NtRp667
(dp668
S'y'
F-0.5804105780524178
sS'x'
F0.0052455733722711652
sS'z'
F0.81430709492479214
sbsbag270
ag463
asg368
F0
sg369
F0
sS'U'
F0
sg370
F0.91417311135832124
sS'v'
(lp669
g471
ag660
ag473
asg379
F0.91417311135832124
sg380
F2.8427813829701645
sg381
F0.16
sg382
F2.8427813829701645
sg383
g12
(g372
g14
NtRp670
(dp671
S'y'
F-0.756959702299418
sS'x'
F0.23316951429792993
sS'z'
F0.61044572788810969
sbsbag263
asg368
F0
sg369
F0
sS'U'
F0
sg370
F0.91417310834033516
sS'v'
(lp672
g12
(g372
g14
NtRp673
(dp674
S'y'
F-0.30901699437494745
sS'x'
F0.75576130956294107
sS'z'
F0.57735027509752013
sbag660
ag12
(g372
g14
NtRp675
(dp676
S'y'
F-0.80901699437494734
sS'x'
F0.46708617669202851
sS'z'
F0.35682209342436938
sbasg379
F0.91417310834033516
sg380
F2.3932063831854418
sg381
F0.16
sg382
F2.3932063831854418
sg383
g12
(g372
g14
NtRp677
(dp678
S'y'
F-0.5804105780524178
sS'x'
F0.5389615675255246
sS'z'
F0.61044573027853
sbsbag652
ag256
asg368
F0
sg369
F0
sS'U'
F0
sg370
F0.61926189687466038
sS'v'
(lp679
g660
ag12
(g372
g14
NtRp680
(dp681
S'y'
F-0.30901699437494745
sS'x'
F0.75576130956294107
sS'z'
F0.57735027509752013
sbag12
(g372
g14
NtRp682
(dp683
S'y'
F0
sS'x'
F0.35682208247053099
sS'z'
F0.93417236175204499
sbasg379
F0.61926189687466038
sg380
F2.1034325671735714
sg381
F0.16
sg382
F2.1034325671735714
sg383
g12
(g372
g14
NtRp684
(dp685
S'y'
F-0.29474809433674326
sS'x'
F0.50002750898413639
sS'z'
F0.81430709879257335
sbsbag249
a(iomma_geom
subFace
p686
(dp687
S'V'
F0
sg8
(lp688
I20
aI26
aI61
asS'F'
F0.079375000000000001
sS'i'
I63
sS'c'
(F0
F0.0017011495158457664
F0.19711718391213146
tp689
sg11
g12
(g13
g14
NtRp690
(dp691
g17
F0.01
sg18
F0.040000000000000001
sS'F'
F0.040000000000000001
sS'k'
F0.059999999999999998
sg19
F0.40000000000000002
sg20
F1
sg21
I4
sbsg22
F1.6000000000000001
sg23
F0.040000000000000001
sS'n'
(lp692
g25
ag74
ag256
asg368
F0
sg369
F0
sS'U'
F0
sg370
F0.61926189687466038
sS'v'
(lp693
g12
(g372
g14
NtRp694
(dp695
S'y'
F0.30901699437494745
sS'x'
F0.75576130956294107
sS'z'
F0.57735027509752013
sbag12
(g372
g14
NtRp696
(dp697
S'y'
F0.52573111211913359
sS'x'
F0.30353099289141544
sS'z'
F0.79465447466451133
sS'i'
I5
sbag682
asg379
F0.61926189687466038
sg380
F1.0381600864162217
sg381
F0.16
sg382
F1.0381600864162217
sg383
g12
(g372
g14
NtRp698
(dp699
S'y'
F0.29474809433674326
sS'x'
F0.50002750898413639
sS'z'
F0.81430709879257335
sbsbasg368
F0
sg369
F0
sS'U'
F0
sg370
F0.7297276484098234
sS'v'
(lp700
g680
ag694
ag682
asg379
F0.7297276484098234
sg380
F1.5707963267948966
sg381
F0.16
sg382
F1.5707963267948966
sg383
g12
(g372
g14
NtRp701
(dp702
S'y'
F0
sS'x'
F0.66666666084011217
sS'z'
F0.74535599771135852
sbsbasg368
F0
sg369
F0
sS'U'
F0
sg370
F1.0770122584612405
sS'v'
(lp703
g680
ag12
(g372
g14
NtRp704
(dp705
S'y'
F0
sS'x'
F0.98224694491040876
sS'z'
F0.18759248176344476
sS'i'
I9
sbag694
asg379
F1.0770122584612405
sg380
F1.5707963267948966
sg381
F0.16
sg382
F1.5707963267948966
sg383
g12
(g372
g14
NtRp706
(dp707
S'y'
F0
sS'x'
F0.88054566520886124
sS'z'
F0.47396131855024232
sbsbasg368
F0
sg369
F0
sS'U'
F0
sg370
F1.2972994884835658
sS'v'
(lp708
g12
(g372
g14
NtRp709
(dp710
S'y'
F0.30901699437494745
sS'x'
F0.75576130956294107
sS'z'
F0.57735027509752013
sbag704
ag12
(g372
g14
NtRp711
(dp712
S'y'
F0.5
sS'x'
F0.8660254037844386
sS'z'
F6.7698444320124675e-09
sbasg379
F1.2972994884835658
sg380
F1.2695718595723451
sg381
F0.16
sg382
F1.2695718595723451
sg383
g12
(g372
g14
NtRp713
(dp714
S'y'
F0.28566248371567449
sS'x'
F0.91947972375024933
sS'z'
F0.27009995003619891
sbsba(iomma_geom
subFace
p715
(dp716
S'V'
F0
sg8
(lp717
I76
aI78
aI79
asS'F'
F0.088125000000000009
sS'i'
I77
sS'c'
(F0.078669708100766692
F0
F0.60817344566620968
tp718
sg11
g12
(g13
g14
NtRp719
(dp720
g17
F0.01
sg18
F0.040000000000000001
sS'F'
F0.040000000000000001
sS'k'
F0.059999999999999998
sg19
F0.40000000000000002
sg20
F1
sg21
I4
sbsg22
F1.6000000000000001
sg23
F0.040000000000000001
sS'n'
(lp721
g235
a(iomma_geom
subFace
p722
(dp723
S'V'
F0
sg8
(lp724
I77
aI58
aI31
asS'F'
F0.088749999999999996
sS'i'
I78
sS'c'
(F0.20231147554257692
F0
F0.70900965781306946
tp725
sg11
g12
(g13
g14
NtRp726
(dp727
g17
F0.01
sg18
F0.040000000000000001
sS'F'
F0.040000000000000001
sS'k'
F0.059999999999999998
sg19
F0.40000000000000002
sg20
F1
sg21
I4
sbsg22
F1.6000000000000001
sg23
F0.040000000000000001
sS'n'
(lp728
g715
a(iomma_geom
subFace
p729
(dp730
S'V'
F0
sg8
(lp731
I78
aI55
aI57
asS'F'
F0.076250000000000012
sS'i'
I58
sS'c'
(F0.50669818227049257
F0
F0.70900965781306946
tp732
sg11
g12
(g13
g14
NtRp733
(dp734
g17
F0.01
sg18
F0.040000000000000001
sS'F'
F0.040000000000000001
sS'k'
F0.059999999999999998
sg19
F0.40000000000000002
sg20
F1
sg21
I4
sbsg22
F1.6000000000000001
sg23
F0.040000000000000001
sS'n'
(lp735
g722
ag172
a(iomma_geom
subFace
p736
(dp737
S'V'
F0
sg8
(lp738
I56
aI58
aI59
asS'F'
F0.075624999999999998
sS'i'
I57
sS'c'
(F0.529503737565443
F0
F0.60817344566620968
tp739
sg11
g12
(g13
g14
NtRp740
(dp741
g17
F0.01
sg18
F0.040000000000000001
sS'F'
F0.040000000000000001
sS'k'
F0.059999999999999998
sg19
F0.40000000000000002
sg20
F1
sg21
I4
sbsg22
F1.6000000000000001
sg23
F0.040000000000000001
sS'n'
(lp742
(iomma_geom
subFace
p743
(dp744
S'V'
F0
sg8
(lp745
I40
aI52
aI57
asS'F'
F0.075000000000000011
sS'i'
I56
sS'c'
(F0.58705674327081203
F0
F0.46239417447352571
tp746
sg11
g12
(g13
g14
NtRp747
(dp748
g17
F0.01
sg18
F0.040000000000000001
sS'F'
F0.040000000000000001
sS'k'
F0.059999999999999998
sg19
F0.40000000000000002
sg20
F1
sg21
I4
sbsg22
F1.6000000000000001
sg23
F0.040000000000000001
sS'n'
(lp749
g207
ag186
ag736
asg368
F0
sg369
F0
sS'U'
F0
sg370
F1.8442931518999324
sS'v'
(lp750
g12
(g372
g14
NtRp751
(dp752
S'y'
F-0.85065080835203999
sS'x'
F0.49112347465486023
sS'z'
F-0.18759247024589748
sS'i'
I3
sbag12
(g372
g14
NtRp753
(dp754
S'y'
F-0.5
sS'x'
F0.64549722888113248
sS'z'
F-0.57735026414368162
sbag12
(g372
g14
NtRp755
(dp756
S'y'
F-0.5
sS'x'
F0.8660254037844386
sS'z'
F6.7698444320124675e-09
sbasg379
F1.8442931518999324
sg380
F2.3167694099312555
sg381
F0.16
sg382
F2.3167694099312555
sg383
g12
(g372
g14
NtRp757
(dp758
S'y'
F-0.6534615590031112
sS'x'
F0.70713083284817213
sS'z'
F-0.27009993732075155
sbsbag729
ag228
asg368
F0
sg369
F0
sS'U'
F0
sg370
F1.9106332290133554
sS'v'
(lp759
g753
ag12
(g372
g14
NtRp760
(dp761
S'y'
F0
sS'x'
F0.93417236175204499
sS'z'
F-0.35682208247053099
sbag755
asg379
F1.9106332290133554
sg380
F1.9589358411190869
sg381
F0.16
sg382
F1.9589358411190869
sg383
g12
(g372
g14
NtRp762
(dp763
S'y'
F-0.35682208977308988
sS'x'
F0.87267799885567932
sS'z'
F-0.33333332651148462
sbsbasg368
F0
sg369
F0
sS'U'
F0
sg370
F2.2274195323097521
sS'v'
(lp764
g753
ag12
(g372
g14
NtRp765
(dp766
S'y'
F0
sS'x'
F0.60706200441861391
sS'z'
F-0.79465446754627567
sS'i'
I8
sbag760
asg379
F2.2274195323097521
sg380
F1.7955838246728943
sg381
F0.16
sg382
F1.7955838246728943
sg383
g12
(g372
g14
NtRp767
(dp768
S'y'
F-0.1765491242470002
sS'x'
F0.77213109613927922
sS'z'
F-0.61044572002953112
sbsba(iomma_geom
subFace
p769
(dp770
S'V'
F0
sg8
(lp771
I72
aI78
aI29
asS'F'
F0.059374999999999997
sS'i'
I31
sS'c'
(F0.0069289934722407522
F0
F0.80288281177822773
tp772
sg11
g12
(g13
g14
NtRp773
(dp774
g17
F0.01
sg18
F0.040000000000000001
sS'F'
F0.040000000000000001
sS'k'
F0.059999999999999998
sg19
F0.40000000000000002
sg20
F1
sg21
I4
sbsg22
F1.6000000000000001
sg23
F0.040000000000000001
sS'n'
(lp775
g165
ag722
a(iomma_geom
subFace
p776
(dp777
S'V'
F0
sg8
(lp778
I28
aI30
aI31
asS'F'
F0.058125000000000003
sS'i'
I29
sS'c'
(F0
F0.38386023022962973
F0.76772047155709311
tp779
sg11
g12
(g13
g14
NtRp780
(dp781
g17
F0.01
sg18
F0.040000000000000001
sS'F'
F0.040000000000000001
sS'k'
F0.059999999999999998
sg19
F0.40000000000000002
sg20
F1
sg21
I4
sbsg22
F1.6000000000000001
sg23
F0.040000000000000001
sS'n'
(lp782
(iomma_geom
subFace
p783
(dp784
S'V'
F0
sg8
(lp785
I11
aI75
aI29
asS'F'
F0.057500000000000002
sS'i'
I28
sS'c'
(F0
F0.80288281396677919
F0.79595383302173672
tp786
sg11
g12
(g13
g14
NtRp787
(dp788
g17
F0.01
sg18
F0.040000000000000001
sS'F'
F0.040000000000000001
sS'k'
F0.059999999999999998
sg19
F0.40000000000000002
sg20
F1
sg21
I4
sbsg22
F1.6000000000000001
sg23
F0.040000000000000001
sS'n'
(lp789
(iomma_geom
subFace
p790
(dp791
S'V'
F0
sg8
(lp792
I9
aI14
aI28
asS'F'
F0.046875
sS'i'
I11
sS'c'
(F0
F0.70900966097125095
F0.50669818933504784
tp793
sg11
g12
(g13
g14
NtRp794
(dp795
g17
F0.01
sg18
F0.040000000000000001
sS'F'
F0.040000000000000001
sS'k'
F0.059999999999999998
sg19
F0.40000000000000002
sg20
F1
sg21
I4
sbsg22
F1.6000000000000001
sg23
F0.040000000000000001
sS'n'
(lp796
g109
ag137
ag783
asg368
F0
sg369
F0
sS'U'
F0
sg370
F2.227419542231472
sS'v'
(lp797
g12
(g372
g14
NtRp798
(dp799
S'y'
F0.80901699437494745
sS'x'
F0.11026409422149756
sS'z'
F-0.57735026832767555
sbag12
(g372
g14
NtRp800
(dp801
S'y'
F0.52573111211913359
sS'x'
F-0.30353099289141544
sS'z'
F-0.79465447466451133
sS'i'
I7
sbag12
(g372
g14
NtRp802
(dp803
S'y'
F0.80901699437494734
sS'x'
F-0.46708617669202851
sS'z'
F-0.35682209342436938
sbasg379
F2.227419542231472
sg380
F-0.29881127061962875
sg381
F0.16
sg382
F-0.29881127061962875
sg383
g12
(g372
g14
NtRp804
(dp805
S'y'
F0.756959702299418
sS'x'
F-0.23316951429792993
sS'z'
F-0.61044572788810969
sbsbag151
ag776
asg368
F0
sg369
F0
sS'U'
F0
sg370
F2.522330750051534
sS'v'
(lp806
g800
ag12
(g372
g14
NtRp807
(dp808
S'y'
F0.80901699437494745
sS'x'
F0.11026409422149756
sS'z'
F-0.57735026832767555
sbag12
(g372
g14
NtRp809
(dp810
S'y'
F0.3090169943749474
sS'x'
F0.17841105218910391
sS'z'
F-0.93417235756805106
sbasg379
F2.522330750051534
sg380
F-0.0090374482448898341
sg381
F0.16
sg382
F-0.0090374482448898341
sg383
g12
(g372
g14
NtRp811
(dp812
S'y'
F0.5804105780524178
sS'x'
F-0.0052455733722711652
sS'z'
F-0.81430709492479214
sbsba(iomma_geom
subFace
p813
(dp814
S'V'
F0
sg8
(lp815
I10
aI79
aI29
asS'F'
F0.058749999999999997
sS'i'
I30
sS'c'
(F0
F0.32858817114234967
F0.65717634685824433
tp816
sg11
g12
(g13
g14
NtRp817
(dp818
g17
F0.01
sg18
F0.040000000000000001
sS'F'
F0.040000000000000001
sS'k'
F0.059999999999999998
sg19
F0.40000000000000002
sg20
F1
sg21
I4
sbsg22
F1.6000000000000001
sg23
F0.040000000000000001
sS'n'
(lp819
g102
a(iomma_geom
subFace
p820
(dp821
S'V'
F0
sg8
(lp822
I77
aI24
aI30
asS'F'
F0.08937500000000001
sS'i'
I79
sS'c'
(F0
F0.12466256879728632
F0.58705674327081203
tp823
sg11
g12
(g13
g14
NtRp824
(dp825
g17
F0.01
sg18
F0.040000000000000001
sS'F'
F0.040000000000000001
sS'k'
F0.059999999999999998
sg19
F0.40000000000000002
sg20
F1
sg21
I4
sbsg22
F1.6000000000000001
sg23
F0.040000000000000001
sS'n'
(lp826
g715
ag88
ag813
asg368
F0
sg369
F0
sS'U'
F0
sg370
F1.8442931518999324
sS'v'
(lp827
g12
(g372
g14
NtRp828
(dp829
S'y'
F0.5
sS'x'
F0.64549722888113248
sS'z'
F-0.57735026414368162
sbag12
(g372
g14
NtRp830
(dp831
S'y'
F0.85065080835203999
sS'x'
F0.49112347465486023
sS'z'
F-0.18759247024589748
sS'i'
I1
sbag12
(g372
g14
NtRp832
(dp833
S'y'
F0.5
sS'x'
F0.8660254037844386
sS'z'
F6.7698444320124675e-09
sbasg379
F1.8442931518999324
sg380
F0.82482324365853765
sg381
F0.16
sg382
F0.82482324365853765
sg383
g12
(g372
g14
NtRp834
(dp835
S'y'
F0.6534615590031112
sS'x'
F0.70713083284817213
sS'z'
F-0.27009993732075155
sbsbag776
asg368
F0
sg369
F0
sS'U'
F0
sg370
F2.0645803834028382
sS'v'
(lp836
g807
ag830
ag12
(g372
g14
NtRp837
(dp838
S'y'
F0.5
sS'x'
F0.64549722888113248
sS'z'
F-0.57735026414368162
sbasg379
F2.0645803834028382
sg380
F0.52359877924222609
sg381
F0.16
sg382
F0.52359877924222609
sg383
g12
(g372
g14
NtRp839
(dp840
S'y'
F0.7625749184717856
sS'x'
F0.44027283816196572
sS'z'
F-0.47396130822521509
sbsbag769
asg368
F0
sg369
F0
sS'U'
F0
sg370
F2.4118649934542553
sS'v'
(lp841
g807
ag837
ag809
asg379
F2.4118649934542553
sg380
F0.52359878316721509
sg381
F0.16
sg382
F0.52359878316721509
sg383
g12
(g372
g14
NtRp842
(dp843
S'y'
F0.57735026918962573
sS'x'
F0.33333333915988772
sS'z'
F-0.74535598989421548
sbsbasg368
F0
sg369
F0
sS'U'
F0
sg370
F2.5223307431759969
sS'v'
(lp844
g837
ag765
ag809
asg379
F2.5223307431759969
sg380
F1.0562350158053078
sg381
F0.16
sg382
F1.0562350158053078
sg383
g12
(g372
g14
NtRp845
(dp846
S'y'
F0.28566248371567449
sS'x'
F0.50527310145307269
sS'z'
F-0.81430709093399478
sbsbasg368
F0
sg369
F0
sS'U'
F0
sg370
F2.2274195323097521
sS'v'
(lp847
g12
(g372
g14
NtRp848
(dp849
S'y'
F0
sS'x'
F0.93417236175204499
sS'z'
F-0.35682208247053099
sbag765
ag828
asg379
F2.2274195323097521
sg380
F1.346008828916899
sg381
F0.16
sg382
F1.346008828916899
sg383
g12
(g372
g14
NtRp850
(dp851
S'y'
F0.1765491242470002
sS'x'
F0.77213109613927922
sS'z'
F-0.61044572002953112
sbsbag820
asg368
F0
sg369
F0
sS'U'
F0
sg370
F1.9106332290133554
sS'v'
(lp852
g848
ag828
ag832
asg379
F1.9106332290133554
sg380
F1.1826568124707064
sg381
F0.16
sg382
F1.1826568124707064
sg383
g12
(g372
g14
NtRp853
(dp854
S'y'
F0.35682208977308988
sS'x'
F0.87267799885567932
sS'z'
F-0.33333332651148462
sbsbag228
asg368
F0
sg369
F0
sS'U'
F0
sg370
F1.6305866174815224
sS'v'
(lp855
g704
ag848
ag832
asg379
F1.6305866174815224
sg380
F1.3929958390514094
sg381
F0.16
sg382
F1.3929958390514094
sg383
g12
(g372
g14
NtRp856
(dp857
S'y'
F0.1765491242470002
sS'x'
F0.98247635379019371
sS'z'
F-0.059754673212590981
sbsbag736
asg368
F0
sg369
F0
sS'U'
F0
sg370
F1.6305866174815224
sS'v'
(lp858
g760
ag704
ag755
asg379
F1.6305866174815224
sg380
F1.7485968145383837
sg381
F0.16
sg382
F1.7485968145383837
sg383
g12
(g372
g14
NtRp859
(dp860
S'y'
F-0.1765491242470002
sS'x'
F0.98247635379019371
sS'z'
F-0.059754673212590981
sbsbag249
asg368
F0
sg369
F0
sS'U'
F0
sg370
F1.2972994884835658
sS'v'
(lp861
g12
(g372
g14
NtRp862
(dp863
S'y'
F-0.5
sS'x'
F0.8660254037844386
sS'z'
F6.7698444320124675e-09
sbag704
ag673
asg379
F1.2972994884835658
sg380
F1.8720207940174483
sg381
F0.16
sg382
F1.8720207940174483
sg383
g12
(g372
g14
NtRp864
(dp865
S'y'
F-0.28566248371567449
sS'x'
F0.91947972375024944
sS'z'
F0.27009995003619891
sbsbag270
asg368
F0
sg369
F0
sS'U'
F0
sg370
F1.2309594111607804
sS'v'
(lp866
g862
ag673
ag675
asg379
F1.2309594111607804
sg380
F2.2298543643137667
sg381
F0.16
sg382
F2.2298543643137667
sg383
g12
(g372
g14
NtRp867
(dp868
S'y'
F-0.57735026918962573
sS'x'
F0.74535598989421548
sS'z'
F0.33333333915988772
sbsbag200
ag743
asg368
F0
sg369
F0
sS'U'
F0
sg370
F1.5110060233700615
sS'v'
(lp869
g751
ag862
ag675
asg379
F1.5110060233700615
sg380
F2.4401933905227273
sg381
F0.16
sg382
F2.4401933905227273
sg383
g12
(g372
g14
NtRp870
(dp871
S'y'
F-0.7625749184717856
sS'x'
F0.64413420280822786
sS'z'
F0.059754685928038329
sbsbag463
ag193
asg368
F0
sg369
F0
sS'U'
F0
sg370
F1.5110060257647608
sS'v'
(lp872
g751
ag471
ag475
asg379
F1.5110060257647608
sg380
F2.7957943662579918
sg381
F0.16
sg382
F2.7957943662579918
sg383
g12
(g372
g14
NtRp873
(dp874
S'y'
F-0.93912404271878569
sS'x'
F0.33834214958063319
sS'z'
F0.05975468353761812
sbsbag484
ag186
asg368
F0
sg369
F0
sS'U'
F0
sg370
F1.8442931559170193
sS'v'
(lp875
g751
ag536
ag531
asg379
F1.8442931559170193
sg380
F2.9192183424245117
sg381
F0.16
sg382
F2.9192183424245117
sg383
g12
(g372
g14
NtRp876
(dp877
S'y'
F-0.93912404271878569
sS'x'
F0.21234889723630695
sS'z'
F-0.27009994118853264
sbsbag179
ag743
asg368
F0
sg369
F0
sS'U'
F0
sg370
F2.0645803834028382
sS'v'
(lp878
g751
ag522
ag12
(g372
g14
NtRp879
(dp880
S'y'
F-0.5
sS'x'
F0.64549722888113248
sS'z'
F-0.57735026414368162
sbasg379
F2.0645803834028382
sg380
F2.617993874347567
sg381
F0.16
sg382
F2.617993874347567
sg383
g12
(g372
g14
NtRp881
(dp882
S'y'
F-0.7625749184717856
sS'x'
F0.44027283816196572
sS'z'
F-0.47396130822521509
sbsbag498
ag172
asg368
F0
sg369
F0
sS'U'
F0
sg370
F2.4118649934542553
sS'v'
(lp883
g522
ag524
ag879
asg379
F2.4118649934542553
sg380
F2.6179938704225783
sg381
F0.16
sg382
F2.6179938704225783
sg383
g12
(g372
g14
NtRp884
(dp885
S'y'
F-0.57735026918962573
sS'x'
F0.33333333915988772
sS'z'
F-0.74535598989421548
sbsbag729
asg368
F0
sg369
F0
sS'U'
F0
sg370
F2.5223307431759969
sS'v'
(lp886
g524
ag765
ag879
asg379
F2.5223307431759969
sg380
F2.0853576377844854
sg381
F0.16
sg382
F2.0853576377844854
sg383
g12
(g372
g14
NtRp887
(dp888
S'y'
F-0.28566248371567449
sS'x'
F0.50527310145307269
sS'z'
F-0.81430709093399478
sbsbag769
asg368
F0
sg369
F0
sS'U'
F0
sg370
F2.7943080357212331
sS'v'
(lp889
g765
ag513
ag12
(g372
g14
NtRp890
(dp891
S'y'
F0.3090169943749474
sS'x'
F0.17841105218910391
sS'z'
F-0.93417235756805106
sbasg379
F2.7943080357212331
sg380
F1.5707963267948966
sg381
F0.16
sg382
F1.5707963267948966
sg383
g12
(g372
g14
NtRp892
(dp893
S'y'
F0
sS'x'
F0.3403457905673582
sS'z'
F-0.940300347146102
sbsbag505
ag151
asg368
F0
sg369
F0
sS'U'
F0
sg370
F3.1415926386886319
sS'v'
(lp894
g513
ag517
ag890
asg379
F3.1415926386886319
sg380
F1.5707963267948966
sg381
F0.16
sg382
F1.5707963267948966
sg383
g12
(g372
g14
NtRp895
(dp896
S'y'
F0
sS'x'
F7.8171430318705881e-09
sS'z'
F-0.99999999999999989
sbsbag783
asg368
F0
sg369
F0
sS'U'
F0
sg370
F2.7943080474469477
sS'v'
(lp897
g517
ag800
ag890
asg379
F2.7943080474469477
sg380
F-0.52359875689471136
sg381
F0.16
sg382
F-0.52359875689471136
sg383
g12
(g372
g14
NtRp898
(dp899
S'y'
F0.29474809433674326
sS'x'
F-0.17017288425798563
sS'z'
F-0.94030035113689958
sbsbag414
ag137
asg368
F0
sg369
F0
sS'U'
F0
sg370
F2.522330756715133
sS'v'
(lp900
g566
ag800
ag559
asg379
F2.522330756715133
sg380
F-1.0381600864162217
sg381
F0.16
sg382
F-1.0381600864162217
sg383
g12
(g372
g14
NtRp901
(dp902
S'y'
F0.29474809433674326
sS'x'
F-0.50002750898413639
sS'z'
F-0.81430709879257335
sbsbag790
ag130
asg368
F0
sg369
F0
sS'U'
F0
sg370
F2.2274195452494578
sS'v'
(lp903
g12
(g372
g14
NtRp904
(dp905
S'y'
F0.80901699437494734
sS'x'
F-0.46708617669202851
sS'z'
F-0.35682209342436938
sbag800
ag578
asg379
F2.2274195452494578
sg380
F-0.74838627040435135
sg381
F0.16
sg382
F-0.74838627040435135
sg383
g12
(g372
g14
NtRp906
(dp907
S'y'
F0.5804105780524178
sS'x'
F-0.5389615675255246
sS'z'
F-0.61044573027853
sbsbag570
asg368
F0
sg369
F0
sS'U'
F0
sg370
F1.9106332424290127
sS'v'
(lp908
g904
ag578
ag582
asg379
F1.9106332424290127
sg380
F-0.91173828927602651
sg381
F0.16
sg382
F-0.91173828927602651
sg383
g12
(g372
g14
NtRp909
(dp910
S'y'
F0.57735026918962573
sS'x'
F-0.74535598989421548
sS'z'
F-0.33333333915988772
sbsbag361
asg368
F0
sg369
F0
sS'U'
F0
sg370
F1.6305866302197318
sS'v'
(lp911
g373
ag904
ag582
asg379
F1.6305866302197318
sg380
F-0.7013992630670659
sg381
F0.16
sg382
F-0.7013992630670659
sg383
g12
(g372
g14
NtRp912
(dp913
S'y'
F0.7625749184717856
sS'x'
F-0.64413420280822786
sS'z'
F-0.059754685928038329
sbsbasg368
F0
sg369
F0
sS'U'
F0
sg370
F1.6305866278250325
sS'v'
(lp914
g373
ag12
(g372
g14
NtRp915
(dp916
S'y'
F1
sS'x'
F0
sS'z'
F0
sbag802
asg379
F1.6305866278250325
sg380
F-0.34579828733180129
sg381
F0.16
sg382
F-0.34579828733180129
sg383
g12
(g372
g14
NtRp917
(dp918
S'y'
F0.93912404271878569
sS'x'
F-0.33834214958063319
sS'z'
F-0.05975468353761812
sbsbag102
ag790
asg368
F0
sg369
F0
sS'U'
F0
sg370
F1.9106332373046875
sS'v'
(lp919
g915
ag798
ag802
asg379
F1.9106332373046875
sg380
F-0.13545925748965049
sg381
F0.16
sg382
F-0.13545925748965049
sg383
g12
(g372
g14
NtRp920
(dp921
S'y'
F0.93417235896271567
sS'x'
F-0.12732200114432068
sS'z'
F-0.33333333432862761
sbsbag813
asg368
F0
sg369
F0
sS'U'
F0
sg370
F1.8442931559170193
sS'v'
(lp922
g915
ag830
ag798
asg379
F1.8442931559170193
sg380
F0.22237431116528131
sg381
F0.16
sg382
F0.22237431116528131
sg383
g12
(g372
g14
NtRp923
(dp924
S'y'
F0.93912404271878569
sS'x'
F0.21234889723630695
sS'z'
F-0.27009994118853264
sbsbag88
asg368
F0
sg369
F0
sS'U'
F0
sg370
F1.5110060257647608
sS'v'
(lp925
g12
(g372
g14
NtRp926
(dp927
S'y'
F0.80901699437494734
sS'x'
F0.46708617669202851
sS'z'
F0.35682209342436938
sbag830
ag12
(g372
g14
NtRp928
(dp929
S'y'
F1
sS'x'
F0
sS'z'
F0
sbasg379
F1.5110060257647608
sg380
F0.34579828733180129
sg381
F0.16
sg382
F0.34579828733180129
sg383
g12
(g372
g14
NtRp930
(dp931
S'y'
F0.93912404271878569
sS'x'
F0.33834214958063319
sS'z'
F0.05975468353761812
sbsbag820
ag81
asg368
F0
sg369
F0
sS'U'
F0
sg370
F1.5110060233700615
sS'v'
(lp932
g830
ag12
(g372
g14
NtRp933
(dp934
S'y'
F0.80901699437494734
sS'x'
F0.46708617669202851
sS'z'
F0.35682209342436938
sbag711
asg379
F1.5110060233700615
sg380
F0.7013992630670659
sg381
F0.16
sg382
F0.7013992630670659
sg383
g12
(g372
g14
NtRp935
(dp936
S'y'
F0.7625749184717856
sS'x'
F0.64413420280822786
sS'z'
F0.059754685928038329
sbsbag74
ag242
asg368
F0
sg369
F0
sS'U'
F0
sg370
F1.2309594111607804
sS'v'
(lp937
g933
ag709
ag711
asg379
F1.2309594111607804
sg380
F0.91173828927602651
sg381
F0.16
sg382
F0.91173828927602651
sg383
g12
(g372
g14
NtRp938
(dp939
S'y'
F0.57735026918962573
sS'x'
F0.74535598989421548
sS'z'
F0.33333333915988772
sbsbag686
asg368
F0
sg369
F0
sS'U'
F0
sg370
F0.91417310834033516
sS'v'
(lp940
g933
ag696
ag709
asg379
F0.91417310834033516
sg380
F0.74838627040435135
sg381
F0.16
sg382
F0.74838627040435135
sg383
g12
(g372
g14
NtRp941
(dp942
S'y'
F0.5804105780524178
sS'x'
F0.5389615675255246
sS'z'
F0.61044573027853
sbsbasg368
F0
sg369
F0
sS'U'
F0
sg370
F0.91417311135832124
sS'v'
(lp943
g12
(g372
g14
NtRp944
(dp945
S'y'
F0.80901699437494745
sS'x'
F-0.11026409422149756
sS'z'
F0.57735026832767555
sbag696
ag926
asg379
F0.91417311135832124
sg380
F0.29881127061962875
sg381
F0.16
sg382
F0.29881127061962875
sg383
g12
(g372
g14
NtRp946
(dp947
S'y'
F0.756959702299418
sS'x'
F0.23316951429792993
sS'z'
F0.61044572788810969
sbsbag95
asg368
F0
sg369
F0
sS'U'
F0
sg370
F1.2309594162851056
sS'v'
(lp948
g944
ag926
ag928
asg379
F1.2309594162851056
sg380
F0.13545925748965049
sg381
F0.16
sg382
F0.13545925748965049
sg383
g12
(g372
g14
NtRp949
(dp950
S'y'
F0.93417235896271567
sS'x'
F0.12732200114432068
sS'z'
F0.33333333432862761
sbsbag116
asg368
F0
sg369
F0
sS'U'
F0
sg370
F1.2972994976727739
sS'v'
(lp951
g373
ag944
ag928
asg379
F1.2972994976727739
sg380
F-0.22237431116528131
sg381
F0.16
sg382
F-0.22237431116528131
sg383
g12
(g372
g14
NtRp952
(dp953
S'y'
F0.93912404271878569
sS'x'
F-0.21234889723630695
sS'z'
F0.27009994118853264
sbsbag361
asg368
F0
sg369
F0
sS'U'
F0
sg370
F1.0770122701869551
sS'v'
(lp954
g373
ag613
ag12
(g372
g14
NtRp955
(dp956
S'y'
F0.80901699437494745
sS'x'
F-0.11026409422149756
sS'z'
F0.57735026832767555
sbasg379
F1.0770122701869551
sg380
F-0.52359877924222609
sg381
F0.16
sg382
F-0.52359877924222609
sg383
g12
(g372
g14
NtRp957
(dp958
S'y'
F0.7625749184717856
sS'x'
F-0.44027283816196572
sS'z'
F0.47396130822521509
sbsbag340
ag32
asg368
F0
sg369
F0
sS'U'
F0
sg370
F0.72972766013553803
sS'v'
(lp959
g613
ag615
ag955
asg379
F0.72972766013553803
sg380
F-0.52359878316721509
sg381
F0.16
sg382
F-0.52359878316721509
sg383
g12
(g372
g14
NtRp960
(dp961
S'y'
F0.57735026918962573
sS'x'
F-0.33333333915988772
sS'z'
F0.74535598989421548
sbsbag67
ag25
asg368
F0
sg369
F0
sS'U'
F0
sg370
F0.61926190353825927
sS'v'
(lp962
g615
ag696
ag955
asg379
F0.61926190353825927
sg380
F0.0090374482448898428
sg381
F0.16
sg382
F0.0090374482448898428
sg383
g12
(g372
g14
NtRp963
(dp964
S'y'
F0.5804105780524178
sS'x'
F0.0052455733722711704
sS'z'
F0.81430709492479214
sbsbag6
ag686
asg368
F0
sg369
F0
sS'U'
F0
sg370
F0.34728460614284562
sS'v'
(lp965
g696
ag620
ag662
asg379
F0.34728460614284562
sg380
F0.52359875689471136
sg381
F0.16
sg382
F0.52359875689471136
sg383
g12
(g372
g14
NtRp966
(dp967
S'y'
F0.29474809433674326
sS'x'
F0.17017288425798563
sS'z'
F0.94030035113689958
sbsbag333
ag652
asg368
F0
sg369
F0
sS'U'
F0
sg370
F0
sS'v'
(lp968
g620
ag622
ag662
asg379
F0
sg380
F-1.5707963267948966
sg381
F0.16
sg382
F-1.5707963267948966
sg383
g12
(g372
g14
NtRp969
(dp970
S'y'
F0
sS'x'
F-7.8171430318705881e-09
sS'z'
F1
sbsbaa(lp971
g25
ag333
ag652
aa(lp972
g340
ag32
ag263
ag686
ag284
ag326
aa(lp973
g39
ag256
ag291
aa(lp974
g67
ag347
ag74
ag319
ag270
ag277
aa(lp975
g46
ag249
ag298
aa(lp976
g53
ag60
ag361
ag354
ag81
ag242
ag312
ag305
ag214
ag221
ag463
ag456
aa(lp977
g95
ag386
ag88
ag393
ag207
ag200
aa(lp978
g116
ag123
ag449
ag228
ag442
ag235
aa(lp979
g109
ag102
ag130
ag570
ag193
ag484
ag743
ag736
ag435
ag400
ag715
ag820
aa(lp980
g813
ag407
ag186
aa(lp981
g790
ag137
ag491
ag729
ag428
ag722
aa(lp982
g776
ag414
ag179
aa(lp983
g783
ag769
ag144
ag421
ag498
ag172
aa(lp984
g165
ag505
ag151
aa(lp985
g158
aasS'numLEDs'
p986
I80
sS'px'
p987
(lp988
(lp989
I0
aI0
aI0
aag989
ag989
ag989
ag989
ag989
ag989
ag989
ag989
ag989
ag989
ag989
ag989
ag989
ag989
ag989
ag989
ag989
ag989
ag989
ag989
ag989
ag989
ag989
ag989
ag989
ag989
ag989
ag989
ag989
ag989
ag989
ag989
ag989
ag989
ag989
ag989
ag989
ag989
ag989
ag989
ag989
ag989
ag989
ag989
ag989
ag989
ag989
ag989
ag989
ag989
ag989
ag989
ag989
ag989
ag989
ag989
ag989
ag989
ag989
ag989
ag989
ag989
ag989
ag989
ag989
ag989
ag989
ag989
ag989
ag989
ag989
ag989
ag989
ag989
ag989
ag989
ag989
ag989
ag989
asS'chan'
p990
(lp991
g46
ag39
ag340
ag32
ag53
ag60
ag67
ag95
ag116
ag109
ag102
ag790
ag123
ag130
ag137
ag570
ag361
ag354
ag386
ag347
ag25
ag6
ag333
ag652
ag88
ag81
ag74
ag242
ag783
ag776
ag813
ag769
ag319
ag312
ag393
ag305
ag407
ag414
ag144
ag421
ag207
ag214
ag221
ag270
ag200
ag463
ag277
ag456
ag193
ag484
ag449
ag491
ag186
ag179
ag498
ag172
ag743
ag736
ag729
ag228
ag263
ag256
ag249
ag686
ag298
ag291
ag284
ag326
ag428
ag435
ag442
ag400
ag165
ag158
ag505
ag151
ag235
ag715
ag722
ag820
asS'ins'
p992
S''
sS'allv'
p993
(lp994
sS'fc'
p995
g12
(copc
Client
p996
g14
NtRp997
(dp998
S'_socket'
p999
NsS'_port'
p1000
I7890
sS'_long_connection'
p1001
I01
sS'verbose'
p1002
I00
sS'_ip'
p1003
S'localhost'
p1004
sbsS'verts'
p1005
(lp1006
g373
ag830
ag480
ag751
ag660
ag696
ag515
ag800
ag765
ag704
ag580
ag608
asS'nfaces'
p1007
I19
sS'faces'
p1008
(lp1009
sS'facemap'
p1010
(lp1011
S'a'
aS'b'
aS'c'
aS'd'
aS'e'
aS'f'
aS'g'
aS'h'
aS'i'
aS'j'
aS'k'
aS'l'
aS'm'
aS'n'
aS'o'
aS'p'
aS'q'
aS'r'
aS's'
asS'cmap'
p1012
(lp1013
sS'boardmap'
p1014
(lp1015
S'x'
aS'x'
aS'x'
aS'x'
aS'x'
aS'x'
aS'x'
aS'x'
aS'x'
aS'x'
aS'x'
aS'x'
aS'x'
aS'x'
aS'x'
aS'x'
aS'x'
aS'x'
aS'x'
asS'lngs'
p1016
(lp1017
(lp1018
g498
aa(lp1019
g456
ag484
ag491
aa(lp1020
g456
ag484
aa(lp1021
g456
ag449
ag491
aa(lp1022
g449
ag491
aa(lp1023
g298
ag291
ag505
aa(lp1024
g428
ag442
aa(lp1025
g305
ag428
ag435
aa(lp1026
g305
ag428
ag442
aa(lp1027
g305
ag435
aa(lp1028
g421
ag326
aa(lp1029
g312
ag400
aa(lp1030
g319
ag393
ag400
aa(lp1031
g319
ag393
aa(lp1032
g319
ag312
ag400
aa(lp1033
g6
ag333
ag407
ag414
aa(lp1034
g386
ag347
aa(lp1035
g570
ag354
ag347
aa(lp1036
g570
ag354
aa(lp1037
g570
ag386
ag347
aa(lp1038
g340
ag144
aa(lp1039
g130
ag361
aa(lp1040
g130
ag137
ag361
aa(lp1041
g123
ag137
aa(lp1042
g123
ag137
ag361
aa(lp1043
g46
ag39
ag151
aa(lp1044
g116
ag790
aa(lp1045
g53
ag109
ag790
aa(lp1046
g53
ag109
aa(lp1047
g53
ag116
ag790
aa(lp1048
g32
ag783
aa(lp1049
g60
ag102
aa(lp1050
g60
ag67
ag102
aa(lp1051
g67
ag95
ag102
aa(lp1052
g67
ag95
aa(lp1053
g25
ag776
ag813
aa(lp1054
g88
ag74
aa(lp1055
g88
ag74
ag820
aa(lp1056
g81
ag820
aa(lp1057
g81
ag74
ag820
aa(lp1058
g769
ag686
aa(lp1059
g242
ag715
ag722
aa(lp1060
g242
ag715
aa(lp1061
g242
ag235
ag722
aa(lp1062
g235
ag722
aa(lp1063
g256
ag249
ag165
ag158
aa(lp1064
g729
ag228
aa(lp1065
g221
ag736
ag729
aa(lp1066
g221
ag736
aa(lp1067
g221
ag729
ag228
aa(lp1068
g172
ag263
aa(lp1069
g214
ag743
aa(lp1070
g214
ag270
ag743
aa(lp1071
g207
ag270
aa(lp1072
g207
ag270
ag743
aa(lp1073
g652
ag186
ag179
aa(lp1074
g200
ag277
aa(lp1075
g200
ag277
ag193
aa(lp1076
g463
ag193
aa(lp1077
g463
ag277
ag193
aa(lp1078
g284
aasS'qfaces'
p1079
(lp1080
(iomma_geom
Quadface
p1081
(dp1082
S'a'
S'A'
sS'f'
(lp1083
g46
ag39
ag340
ag32
asS'i'
I0
sS'vi'
p1084
(lp1085
I0
aI11
aI5
asS'v'
(lp1086
g373
ag608
ag696
ag613
ag615
ag955
asg379
F0.72972766013553803
sg380
F-0.52359878316721509
sg383
g12
(g372
g14
NtRp1087
(dp1088
S'y'
F0.57735026918962573
sS'x'
F-0.33333333915988772
sS'z'
F0.74535598989421548
sbsba(iomma_geom
Quadface
p1089
(dp1090
S'a'
S'x'
sS'f'
(lp1091
g53
ag60
ag67
ag95
asS'i'
I1
sg1084
(lp1092
I0
aI5
aI1
asS'v'
(lp1093
g373
ag696
ag830
ag944
ag926
ag928
asg379
F1.2309594162851059
sg380
F0.13545925748965049
sg383
g12
(g372
g14
NtRp1094
(dp1095
S'y'
F0.93417235896271567
sS'x'
F0.12732200114432068
sS'z'
F0.33333333432862755
sbsba(iomma_geom
Quadface
p1096
(dp1097
S'a'
S'x'
sS'f'
(lp1098
g116
ag109
ag102
ag790
asS'i'
I2
sg1084
(lp1099
I0
aI1
aI7
asS'v'
(lp1100
g373
ag830
ag800
ag915
ag798
ag802
asg379
F1.9106332373046875
sg380
F-0.13545925748965049
sg383
g12
(g372
g14
NtRp1101
(dp1102
S'y'
F0.93417235896271567
sS'x'
F-0.12732200114432068
sS'z'
F-0.33333333432862761
sbsba(iomma_geom
Quadface
p1103
(dp1104
S'a'
S'x'
sS'f'
(lp1105
g123
ag130
ag137
ag570
asS'i'
I3
sg1084
(lp1106
I0
aI7
aI10
asS'v'
(lp1107
g373
ag800
ag580
ag904
ag578
ag582
asg379
F1.9106332424290127
sg380
F-0.91173828927602651
sg383
g12
(g372
g14
NtRp1108
(dp1109
S'y'
F0.57735026918962573
sS'x'
F-0.74535598989421548
sS'z'
F-0.33333333915988772
sbsba(iomma_geom
Quadface
p1110
(dp1111
S'a'
S'x'
sS'f'
(lp1112
g361
ag354
ag386
ag347
asS'i'
I4
sg1084
(lp1113
I0
aI10
aI11
asS'v'
(lp1114
g373
ag580
ag608
ag375
ag600
ag377
asg379
F1.2309594245764379
sg380
F-1.1826568124707062
sg383
g12
(g372
g14
NtRp1115
(dp1116
S'y'
F0.35682208977308999
sS'x'
F-0.87267799885567932
sS'z'
F0.33333332651148467
sbsba(iomma_geom
Quadface
p1117
(dp1118
S'a'
S'x'
sS'f'
(lp1119
g25
ag6
ag333
ag652
asS'i'
I5
sg1084
(lp1120
I5
aI11
aI4
asS'v'
(lp1121
g696
ag608
ag660
ag620
ag622
ag662
asg379
F0
sg380
F-1.5707963267948966
sg383
g12
(g372
g14
NtRp1122
(dp1123
S'y'
F0
sS'x'
F-7.8171430383273614e-09
sS'z'
F1
sbsba(iomma_geom
Quadface
p1124
(dp1125
S'a'
S'x'
sS'f'
(lp1126
g88
ag81
ag74
ag242
asS'i'
I6
sg1084
(lp1127
I1
aI5
aI9
asS'v'
(lp1128
g830
ag696
ag704
ag933
ag709
ag711
asg379
F1.2309594111607804
sg380
F0.91173828927602651
sg383
g12
(g372
g14
NtRp1129
(dp1130
S'y'
F0.57735026918962573
sS'x'
F0.74535598989421548
sS'z'
F0.33333333915988772
sbsba(iomma_geom
Quadface
p1131
(dp1132
S'a'
S'x'
sS'f'
(lp1133
g783
ag776
ag813
ag769
asS'i'
I7
sg1084
(lp1134
I7
aI1
aI8
asS'v'
(lp1135
g800
ag830
ag765
ag807
ag837
ag809
asg379
F2.4118649934542553
sg380
F0.52359878316721509
sg383
g12
(g372
g14
NtRp1136
(dp1137
S'y'
F0.57735026918962573
sS'x'
F0.33333333915988772
sS'z'
F-0.74535598989421548
sbsba(iomma_geom
Quadface
p1138
(dp1139
S'a'
S'x'
sS'f'
(lp1140
g319
ag312
ag393
ag305
asS'i'
I8
sg1084
(lp1141
I11
aI10
aI2
asS'v'
(lp1142
g608
ag580
ag480
ag593
ag595
ag634
asg379
F1.2309594245764379
sg380
F-1.9589358411190869
sg383
g12
(g372
g14
NtRp1143
(dp1144
S'y'
F-0.35682208977309005
sS'x'
F-0.87267799885567943
sS'z'
F0.33333332651148462
sbsba(iomma_geom
Quadface
p1145
(dp1146
S'a'
S'x'
sS'f'
(lp1147
g407
ag414
ag144
ag421
asS'i'
I9
sg1084
(lp1148
I10
aI7
aI6
asS'v'
(lp1149
g580
ag800
ag515
ag566
ag559
ag561
asg379
F2.4118650051799699
sg380
F-1.5707963267948966
sg383
g12
(g372
g14
NtRp1150
(dp1151
S'y'
F0
sS'x'
F-0.66666666084011217
sS'z'
F-0.74535599771135863
sbsba(iomma_geom
Quadface
p1152
(dp1153
S'a'
S'x'
sS'f'
(lp1154
g207
ag214
ag221
ag270
asS'i'
I10
sg1084
(lp1155
I3
aI9
aI4
asS'v'
(lp1156
g751
ag704
ag660
ag862
ag673
ag675
asg379
F1.2309594111607804
sg380
F2.2298543643137667
sg383
g12
(g372
g14
NtRp1157
(dp1158
S'y'
F-0.57735026918962584
sS'x'
F0.74535598989421559
sS'z'
F0.33333333915988772
sbsba(iomma_geom
Quadface
p1159
(dp1160
S'a'
S'x'
sS'f'
(lp1161
g200
ag463
ag277
ag456
asS'i'
I11
sg1084
(lp1162
I3
aI4
aI2
asS'v'
(lp1163
g751
ag660
ag480
ag471
ag473
ag475
asg379
F1.2309594162851056
sg380
F3.0061333961001426
sg383
g12
(g372
g14
NtRp1164
(dp1165
S'y'
F-0.93417235896271567
sS'x'
F0.12732200114432068
sS'z'
F0.33333333432862766
sbsba(iomma_geom
Quadface
p1166
(dp1167
S'a'
S'x'
sS'f'
(lp1168
g193
ag484
ag449
ag491
asS'i'
I12
sg1084
(lp1169
I3
aI2
aI6
asS'v'
(lp1170
g751
ag480
ag515
ag536
ag529
ag531
asg379
F1.9106332373046875
sg380
F-3.0061333961001426
sg383
g12
(g372
g14
NtRp1171
(dp1172
S'y'
F-0.93417235896271567
sS'x'
F-0.12732200114432068
sS'z'
F-0.33333333432862761
sbsba(iomma_geom
Quadface
p1173
(dp1174
S'a'
S'x'
sS'f'
(lp1175
g186
ag179
ag498
ag172
asS'i'
I13
sg1084
(lp1176
I3
aI6
aI8
asS'v'
(lp1177
g751
ag515
ag765
ag522
ag524
ag879
asg379
F2.4118649934542553
sg380
F2.6179938704225783
sg383
g12
(g372
g14
NtRp1178
(dp1179
S'y'
F-0.57735026918962573
sS'x'
F0.33333333915988772
sS'z'
F-0.74535598989421548
sbsba(iomma_geom
Quadface
p1180
(dp1181
S'a'
S'x'
sS'f'
(lp1182
g743
ag736
ag729
ag228
asS'i'
I14
sg1084
(lp1183
I3
aI8
aI9
asS'v'
(lp1184
g751
ag765
ag704
ag753
ag760
ag755
asg379
F1.9106332290133554
sg380
F1.9589358411190869
sg383
g12
(g372
g14
NtRp1185
(dp1186
S'y'
F-0.35682208977308999
sS'x'
F0.87267799885567932
sS'z'
F-0.33333332651148467
sbsba(iomma_geom
Quadface
p1187
(dp1188
S'a'
S'x'
sS'f'
(lp1189
g263
ag256
ag249
ag686
asS'i'
I15
sg1084
(lp1190
I4
aI9
aI5
asS'v'
(lp1191
g660
ag704
ag696
ag680
ag694
ag682
asg379
F0.72972764840982318
sg380
F1.5707963267948966
sg383
g12
(g372
g14
NtRp1192
(dp1193
S'y'
F0
sS'x'
F0.66666666084011217
sS'z'
F0.74535599771135863
sbsba(iomma_geom
Quadface
p1194
(dp1195
S'a'
S'x'
sS'f'
(lp1196
g298
ag291
ag284
ag326
asS'i'
I16
sg1084
(lp1197
I2
aI4
aI11
asS'v'
(lp1198
g480
ag660
ag608
ag645
ag627
ag629
asg379
F0.72972766013553803
sg380
F-2.6179938704225783
sg383
g12
(g372
g14
NtRp1199
(dp1200
S'y'
F-0.57735026918962573
sS'x'
F-0.33333333915988772
sS'z'
F0.74535598989421548
sbsba(iomma_geom
Quadface
p1201
(dp1202
S'a'
S'x'
sS'f'
(lp1203
g428
ag435
ag442
ag400
asS'i'
I17
sg1084
(lp1204
I6
aI2
aI10
asS'v'
(lp1205
g515
ag480
ag580
ag544
ag546
ag551
asg379
F1.9106332424290127
sg380
F-2.2298543643137667
sg383
g12
(g372
g14
NtRp1206
(dp1207
S'y'
F-0.57735026918962573
sS'x'
F-0.74535598989421548
sS'z'
F-0.33333333915988772
sbsba(iomma_geom
Quadface
p1208
(dp1209
S'a'
S'x'
sS'f'
(lp1210
g165
ag158
ag505
ag151
asS'i'
I18
sg1084
(lp1211
I8
aI6
aI7
asS'v'
(lp1212
g765
ag515
ag800
ag513
ag517
ag890
asg379
F3.1415926535897931
sg380
F1.5707963267948966
sg383
g12
(g372
g14
NtRp1213
(dp1214
S'y'
F0
sS'x'
F7.8171430383273614e-09
sS'z'
F-1
sbsba(iomma_geom
Quadface
p1215
(dp1216
S'a'
S'x'
sS'f'
(lp1217
g235
ag715
ag722
ag820
asS'i'
I19
sg1084
(lp1218
I9
aI8
aI1
asS'v'
(lp1219
g704
ag765
ag830
ag848
ag828
ag832
asg379
F1.9106332290133554
sg380
F1.1826568124707062
sg383
g12
(g372
g14
NtRp1220
(dp1221
S'y'
F0.35682208977309005
sS'x'
F0.87267799885567943
sS'z'
F-0.33333332651148462
sbsbasb.