(iclasses
Ommatid
p1
(dp2
S'verts'
p3
(lp4
ccopy_reg
_reconstructor
p5
(cclasses
Vertex
p6
c__builtin__
object
p7
Ntp8
Rp9
(dp10
S'x'
p11
F-0.525731130345
sS'z'
p12
F0.0
sS'y'
p13
F0.850650846471
sS'i'
p14
I0
sbag5
(g6
g7
Ntp15
Rp16
(dp17
S'x'
p18
F0.525731130345
sS'z'
p19
F0.0
sS'y'
p20
F0.850650846471
sS'i'
p21
I1
sbag5
(g6
g7
Ntp22
Rp23
(dp24
S'x'
p25
F-0.525731130345
sS'z'
p26
F0.0
sS'y'
p27
F-0.850650846471
sS'i'
p28
I2
sbag5
(g6
g7
Ntp29
Rp30
(dp31
S'x'
p32
F0.525731130345
sS'z'
p33
F0.0
sS'y'
p34
F-0.850650846471
sS'i'
p35
I3
sbag5
(g6
g7
Ntp36
Rp37
(dp38
S'x'
p39
F0.0
sS'z'
p40
F0.850650846471
sS'y'
p41
F-0.525731130345
sS'i'
p42
I4
sbag5
(g6
g7
Ntp43
Rp44
(dp45
S'x'
p46
F0.0
sS'z'
p47
F0.850650846471
sS'y'
p48
F0.525731130345
sS'i'
p49
I5
sbag5
(g6
g7
Ntp50
Rp51
(dp52
S'x'
p53
F0.0
sS'z'
p54
F-0.850650846471
sS'y'
p55
F-0.525731130345
sS'i'
p56
I6
sbag5
(g6
g7
Ntp57
Rp58
(dp59
S'x'
p60
F0.0
sS'z'
p61
F-0.850650846471
sS'y'
p62
F0.525731130345
sS'i'
p63
I7
sbag5
(g6
g7
Ntp64
Rp65
(dp66
S'x'
p67
F0.850650846471
sS'z'
p68
F-0.525731130345
sS'y'
p69
F0.0
sS'i'
p70
I8
sbag5
(g6
g7
Ntp71
Rp72
(dp73
S'x'
p74
F0.850650846471
sS'z'
p75
F0.525731130345
sS'y'
p76
F0.0
sS'i'
p77
I9
sbag5
(g6
g7
Ntp78
Rp79
(dp80
S'x'
p81
F-0.850650846471
sS'z'
p82
F-0.525731130345
sS'y'
p83
F0.0
sS'i'
p84
I10
sbag5
(g6
g7
Ntp85
Rp86
(dp87
S'x'
p88
F-0.850650846471
sS'z'
p89
F0.525731130345
sS'y'
p90
F0.0
sS'i'
p91
I11
sbasS'faces'
p92
(lp93
sS'allv'
p94
(lp95
sS'qfaces'
p96
(lp97
(iclasses
Quadface
p98
(dp99
S'f'
p100
(lp101
(iclasses
subFace
p102
(dp103
S'F'
p104
F0.04
sS'nv'
p105
g5
(g6
g7
Ntp106
Rp107
(dp108
S'y'
p109
F0.762574912566
sS'x'
p110
F-0.580410571364
sS'z'
p111
F0.285662483589
sbsS'c'
p112
I-8388608
sS'th'
p113
F1.28109872341
sS'n'
p114
(lp115
(iclasses
subFace
p116
(dp117
S'F'
p118
F0.05
sS'nv'
p119
g5
(g6
g7
Ntp120
Rp121
(dp122
S'y'
p123
F0.653461568038
sS'x'
p124
F-0.756959701302
sS'z'
p125
F0.0
sbsS'c'
p126
I-8388608
sS'th'
p127
F1.57079637051
sS'n'
p128
(lp129
g102
a(iclasses
subFace
p130
(dp131
S'F'
p132
F0.0475
sS'nv'
p133
g5
(g6
g7
Ntp134
Rp135
(dp136
S'y'
p137
F0.762574925632
sS'x'
p138
F-0.580410567774
sS'z'
p139
F-0.285662474096
sbsS'c'
p140
I-8388608
sS'th'
p141
F1.8604940176
sS'n'
p142
(lp143
(iclasses
subFace
p144
(dp145
S'F'
p146
F0.048125
sS'nv'
p147
g5
(g6
g7
Ntp148
Rp149
(dp150
S'y'
p151
F0.577350295388
sS'x'
p152
F-0.57735027412
sS'z'
p153
F-0.577350282243
sbsS'c'
p154
I-8355712
sS'th'
p155
F2.18627595901
sS'n'
p156
(lp157
g130
a(iclasses
subFace
p158
(dp159
S'F'
p160
F0.049375
sS'nv'
p161
g5
(g6
g7
Ntp162
Rp163
(dp164
S'y'
p165
F0.285662504648
sS'x'
p166
F-0.76257495088
sS'z'
p167
F-0.580410603087
sbsS'c'
p168
I-16777088
sS'th'
p169
F2.19002914429
sS'n'
p170
(lp171
(iclasses
subFace
p172
(dp173
S'F'
p174
F0.05125
sS'nv'
p175
g5
(g6
g7
Ntp176
Rp177
(dp178
S'y'
p179
F0.176549123005
sS'x'
p180
F-0.939124048637
sS'z'
p181
F-0.294748097698
sbsS'c'
p182
I-16744448
sS'th'
p183
F1.86998820305
sS'n'
p184
(lp185
(iclasses
subFace
p186
(dp187
S'F'
p188
F0.06125
sS'nv'
p189
g5
(g6
g7
Ntp190
Rp191
(dp192
S'y'
p193
F-0.176549112482
sS'x'
p194
F-0.939124042134
sS'z'
p195
F-0.294748097698
sbsS'c'
p196
I-16744448
sS'th'
p197
F1.86998820305
sS'n'
p198
(lp199
g172
a(iclasses
subFace
p200
(dp201
S'F'
p202
F0.060625
sS'nv'
p203
g5
(g6
g7
Ntp204
Rp205
(dp206
S'y'
p207
F-0.356822086079
sS'x'
p208
F-0.934172389591
sS'z'
p209
F0.0
sbsS'c'
p210
I-8355712
sS'th'
p211
F1.57079637051
sS'n'
p212
(lp213
g186
a(iclasses
subFace
p214
(dp215
S'F'
p216
F0.061875
sS'nv'
p217
g5
(g6
g7
Ntp218
Rp219
(dp220
S'y'
p221
F-0.653461584101
sS'x'
p222
F-0.756959740955
sS'z'
p223
F0.0
sbsS'c'
p224
I-16777088
sS'th'
p225
F1.57079637051
sS'n'
p226
(lp227
(iclasses
subFace
p228
(dp229
S'F'
p230
F0.08375
sS'nv'
p231
g5
(g6
g7
Ntp232
Rp233
(dp234
S'y'
p235
F-0.762574925632
sS'x'
p236
F-0.580410578297
sS'z'
p237
F-0.285662480599
sbsS'c'
p238
I-16744448
sS'th'
p239
F1.8604940176
sS'n'
p240
(lp241
(iclasses
subFace
p242
(dp243
S'F'
p244
F0.083125
sS'nv'
p245
g5
(g6
g7
Ntp246
Rp247
(dp248
S'y'
p249
F-0.577350246271
sS'x'
p250
F-0.577350246271
sS'z'
p251
F-0.577350246271
sbsS'c'
p252
I-8355712
sS'th'
p253
F2.18627595901
sS'n'
p254
(lp255
g228
a(iclasses
subFace
p256
(dp257
S'F'
p258
F0.0825
sS'nv'
p259
g5
(g6
g7
Ntp260
Rp261
(dp262
S'y'
p263
F-0.580410578297
sS'x'
p264
F-0.285662480599
sS'z'
p265
F-0.762574925632
sbsS'c'
p266
I-8388608
sS'th'
p267
F2.43808054924
sS'n'
p268
(lp269
g242
a(iclasses
subFace
p270
(dp271
S'F'
p272
F0.064375
sS'nv'
p273
g5
(g6
g7
Ntp274
Rp275
(dp276
S'y'
p277
F-0.294748098439
sS'x'
p278
F-0.176549137868
sS'z'
p279
F-0.939124088748
sbsS'c'
p280
I-16777088
sS'th'
p281
F2.79086828232
sS'n'
p282
(lp283
(iclasses
subFace
p284
(dp285
S'F'
p286
F0.08625
sS'nv'
p287
g5
(g6
g7
Ntp288
Rp289
(dp290
S'y'
p291
F-0.294748097698
sS'x'
p292
F0.176549123005
sS'z'
p293
F-0.939124048637
sbsS'c'
p294
I-16744448
sS'th'
p295
F2.79086828232
sS'n'
p296
(lp297
(iclasses
subFace
p298
(dp299
S'F'
p300
F0.085625
sS'nv'
p301
g5
(g6
g7
Ntp302
Rp303
(dp304
S'y'
p305
F0.0
sS'x'
p306
F0.356822076991
sS'z'
p307
F-0.934172323262
sbsS'c'
p308
I-8355712
sS'th'
p309
F2.77672886848
sS'n'
p310
(lp311
(iclasses
subFace
p312
(dp313
S'F'
p314
F0.086875
sS'nv'
p315
g5
(g6
g7
Ntp316
Rp317
(dp318
S'y'
p319
F0.294748097698
sS'x'
p320
F0.176549123005
sS'z'
p321
F-0.939124048637
sbsS'c'
p322
I-16777088
sS'th'
p323
F2.79086828232
sS'n'
p324
(lp325
(iclasses
subFace
p326
(dp327
S'F'
p328
F0.0575
sS'nv'
p329
g5
(g6
g7
Ntp330
Rp331
(dp332
S'y'
p333
F0.580410578297
sS'x'
p334
F0.285662470076
sS'z'
p335
F-0.762574919129
sbsS'c'
p336
I-8388608
sS'th'
p337
F2.43808054924
sS'n'
p338
(lp339
g312
a(iclasses
subFace
p340
(dp341
S'F'
p342
F0.058125
sS'nv'
p343
g5
(g6
g7
Ntp344
Rp345
(dp346
S'y'
p347
F0.577350295388
sS'x'
p348
F0.57735027412
sS'z'
p349
F-0.577350282243
sbsS'c'
p350
I-8355712
sS'th'
p351
F2.18627595901
sS'n'
p352
(lp353
g326
a(iclasses
subFace
p354
(dp355
S'F'
p356
F0.059375
sS'nv'
p357
g5
(g6
g7
Ntp358
Rp359
(dp360
S'y'
p361
F0.285662504648
sS'x'
p362
F0.76257495088
sS'z'
p363
F-0.580410603087
sbsS'c'
p364
I-16777088
sS'th'
p365
F2.19002914429
sS'n'
p366
(lp367
(iclasses
subFace
p368
(dp369
S'F'
p370
F0.08875
sS'nv'
p371
g5
(g6
g7
Ntp372
Rp373
(dp374
S'y'
p375
F0.176549123005
sS'x'
p376
F0.939124048637
sS'z'
p377
F-0.294748097698
sbsS'c'
p378
I-16744448
sS'th'
p379
F1.86998820305
sS'n'
p380
(lp381
g354
a(iclasses
subFace
p382
(dp383
S'F'
p384
F0.07625
sS'nv'
p385
g5
(g6
g7
Ntp386
Rp387
(dp388
S'y'
p389
F-0.176549123005
sS'x'
p390
F0.939124048637
sS'z'
p391
F-0.294748097698
sbsS'c'
p392
I-16744448
sS'th'
p393
F1.86998820305
sS'n'
p394
(lp395
(iclasses
subFace
p396
(dp397
S'F'
p398
F0.074375
sS'nv'
p399
g5
(g6
g7
Ntp400
Rp401
(dp402
S'y'
p403
F-0.285662480599
sS'x'
p404
F0.762574925632
sS'z'
p405
F-0.580410578297
sbsS'c'
p406
I-16777088
sS'th'
p407
F2.19002914429
sS'n'
p408
(lp409
(iclasses
subFace
p410
(dp411
S'F'
p412
F0.073125
sS'nv'
p413
g5
(g6
g7
Ntp414
Rp415
(dp416
S'y'
p417
F-0.577350246271
sS'x'
p418
F0.577350246271
sS'z'
p419
F-0.577350246271
sbsS'c'
p420
I-8355712
sS'th'
p421
F2.18627595901
sS'n'
p422
(lp423
g396
a(iclasses
subFace
p424
(dp425
S'F'
p426
F0.07375
sS'nv'
p427
g5
(g6
g7
Ntp428
Rp429
(dp430
S'y'
p431
F-0.580410578297
sS'x'
p432
F0.285662480599
sS'z'
p433
F-0.762574925632
sbsS'c'
p434
I-16744448
sS'th'
p435
F2.43808054924
sS'n'
p436
(lp437
g284
ag410
a(iclasses
subFace
p438
(dp439
S'F'
p440
F0.071875
sS'nv'
p441
g5
(g6
g7
Ntp442
Rp443
(dp444
S'y'
p445
F-0.756959701302
sS'x'
p446
F0.0
sS'z'
p447
F-0.653461568038
sbsS'c'
p448
I-16777088
sS'th'
p449
F2.28294467926
sS'n'
p450
(lp451
(iclasses
subFace
p452
(dp453
S'F'
p454
F0.070625
sS'nv'
p455
g5
(g6
g7
Ntp456
Rp457
(dp458
S'y'
p459
F-0.934172323262
sS'x'
p460
F0.0
sS'z'
p461
F-0.356822076991
sbsS'c'
p462
I-8355712
sS'th'
p463
F1.93566012383
sS'n'
p464
(lp465
(iclasses
subFace
p466
(dp467
S'F'
p468
F0.07
sS'nv'
p469
g5
(g6
g7
Ntp470
Rp471
(dp472
S'y'
p473
F-0.939124048637
sS'x'
p474
F0.294748097698
sS'z'
p475
F-0.176549123005
sbsS'c'
p476
I-8388608
sS'th'
p477
F1.74827575684
sS'n'
p478
(lp479
g452
a(iclasses
subFace
p480
(dp481
S'F'
p482
F0.0675
sS'nv'
p483
g5
(g6
g7
Ntp484
Rp485
(dp486
S'y'
p487
F-0.939124048637
sS'x'
p488
F0.294748097698
sS'z'
p489
F0.176549123005
sbsS'c'
p490
I-8388608
sS'th'
p491
F1.39331698418
sS'n'
p492
(lp493
g466
a(iclasses
subFace
p494
(dp495
S'F'
p496
F0.065
sS'nv'
p497
g5
(g6
g7
Ntp498
Rp499
(dp500
S'y'
p501
F-0.76257495088
sS'x'
p502
F0.580410603087
sS'z'
p503
F0.285662504648
sbsS'c'
p504
I-8388608
sS'th'
p505
F1.2810986042
sS'n'
p506
(lp507
(iclasses
subFace
p508
(dp509
S'F'
p510
F0.065625
sS'nv'
p511
g5
(g6
g7
Ntp512
Rp513
(dp514
S'y'
p515
F-0.57735027412
sS'x'
p516
F0.577350282243
sS'z'
p517
F0.577350295388
sbsS'c'
p518
I-8355712
sS'th'
p519
F0.955316543579
sS'n'
p520
(lp521
(iclasses
subFace
p522
(dp523
S'F'
p524
F0.06625
sS'nv'
p525
g5
(g6
g7
Ntp526
Rp527
(dp528
S'y'
p529
F-0.285662470076
sS'x'
p530
F0.762574919129
sS'z'
p531
F0.580410578297
sbsS'c'
p532
I-16744448
sS'th'
p533
F0.951563477516
sS'n'
p534
(lp535
(iclasses
subFace
p536
(dp537
S'F'
p538
F0.07875
sS'nv'
p539
g5
(g6
g7
Ntp540
Rp541
(dp542
S'y'
p543
F0.0
sS'x'
p544
F0.653461568038
sS'z'
p545
F0.756959701302
sbsS'c'
p546
I-16744448
sS'th'
p547
F0.712148487568
sS'n'
p548
(lp549
(iclasses
subFace
p550
(dp551
S'F'
p552
F0.078125
sS'nv'
p553
g5
(g6
g7
Ntp554
Rp555
(dp556
S'y'
p557
F0.0
sS'x'
p558
F0.356822076991
sS'z'
p559
F0.934172323262
sbsS'c'
p560
I-8355712
sS'th'
p561
F0.36486390233
sS'n'
p562
(lp563
g536
a(iclasses
subFace
p564
(dp565
S'F'
p566
F0.079375
sS'nv'
p567
g5
(g6
g7
Ntp568
Rp569
(dp570
S'y'
p571
F0.294748097698
sS'x'
p572
F0.176549123005
sS'z'
p573
F0.939124048637
sbsS'c'
p574
I-16777088
sS'th'
p575
F0.350724458694
sS'n'
p576
(lp577
(iclasses
subFace
p578
(dp579
S'F'
p580
F0.0525
sS'nv'
p581
g5
(g6
g7
Ntp582
Rp583
(dp584
S'y'
p585
F0.294748104202
sS'x'
p586
F-0.176549123005
sS'z'
p587
F0.939124038114
sbsS'c'
p588
I-8388608
sS'th'
p589
F0.350724458694
sS'n'
p590
(lp591
g564
a(iclasses
subFace
p592
(dp593
S'F'
p594
F0.053125
sS'nv'
p595
g5
(g6
g7
Ntp596
Rp597
(dp598
S'y'
p599
F1.3144504289e-08
sS'x'
p600
F-0.356822107347
sS'z'
p601
F0.934172381467
sbsS'c'
p602
I-8355712
sS'th'
p603
F0.364863723516
sS'n'
p604
(lp605
g578
a(iclasses
subFace
p606
(dp607
S'F'
p608
F0.05375
sS'nv'
p609
g5
(g6
g7
Ntp610
Rp611
(dp612
S'y'
p613
F6.50366290728e-09
sS'x'
p614
F-0.653461568038
sS'z'
p615
F0.756959690779
sbsS'c'
p616
I-16744448
sS'th'
p617
F0.712148487568
sS'n'
p618
(lp619
(iclasses
subFace
p620
(dp621
S'F'
p622
F0.081875
sS'nv'
p623
g5
(g6
g7
Ntp624
Rp625
(dp626
S'y'
p627
F-0.285662480599
sS'x'
p628
F-0.762574925632
sS'z'
p629
F0.580410578297
sbsS'c'
p630
I-16777088
sS'th'
p631
F0.951563477516
sS'n'
p632
(lp633
g606
a(iclasses
subFace
p634
(dp635
S'F'
p636
F0.06
sS'nv'
p637
g5
(g6
g7
Ntp638
Rp639
(dp640
S'y'
p641
F-0.176549112482
sS'x'
p642
F-0.939124042134
sS'z'
p643
F0.294748097698
sbsS'c'
p644
I-8388608
sS'th'
p645
F1.27160441875
sS'n'
p646
(lp647
(iclasses
subFace
p648
(dp649
S'F'
p650
F0.051875
sS'nv'
p651
g5
(g6
g7
Ntp652
Rp653
(dp654
S'y'
p655
F0.176549123005
sS'x'
p656
F-0.939124048637
sS'z'
p657
F0.294748097698
sbsS'c'
p658
I-16777088
sS'th'
p659
F1.27160441875
sS'n'
p660
(lp661
(iclasses
subFace
p662
(dp663
S'F'
p664
F0.04125
sS'nv'
p665
g5
(g6
g7
Ntp666
Rp667
(dp668
S'y'
p669
F0.285662483589
sS'x'
p670
F-0.762574912566
sS'z'
p671
F0.580410571364
sbsS'c'
p672
I-16744448
sS'th'
p673
F0.951563477516
sS'n'
p674
(lp675
g606
ag648
a(iclasses
subFace
p676
(dp677
S'F'
p678
F0.040625
sS'nv'
p679
g5
(g6
g7
Ntp680
Rp681
(dp682
S'y'
p683
F0.577350252313
sS'x'
p684
F-0.577350252313
sS'z'
p685
F0.577350252313
sbsS'c'
p686
I-8355712
sS'th'
p687
F0.955316603184
sS'n'
p688
(lp689
g102
ag662
a(iclasses
subFace
p690
(dp691
S'F'
p692
F0.041875
sS'nv'
p693
g5
(g6
g7
Ntp694
Rp695
(dp696
S'y'
p697
F0.580410571364
sS'x'
p698
F-0.285662483589
sS'z'
p699
F0.762574912566
sbsS'c'
p700
I-16777088
sS'th'
p701
F0.703512132168
sS'n'
p702
(lp703
g578
a(iclasses
subFace
p704
(dp705
S'F'
p706
F0.04375
sS'nv'
p707
g5
(g6
g7
Ntp708
Rp709
(dp710
S'y'
p711
F0.756959690779
sS'x'
p712
F-6.50366290728e-09
sS'z'
p713
F0.653461568038
sbsS'c'
p714
I-16744448
sS'th'
p715
F0.858647882938
sS'n'
p716
(lp717
(iclasses
subFace
p718
(dp719
S'F'
p720
F0.043125
sS'nv'
p721
g5
(g6
g7
Ntp722
Rp723
(dp724
S'y'
p725
F0.934172381467
sS'x'
p726
F-1.3144504289e-08
sS'z'
p727
F0.356822107347
sbsS'c'
p728
I-8355712
sS'th'
p729
F1.20593249798
sS'n'
p730
(lp731
g704
a(iclasses
subFace
p732
(dp733
S'F'
p734
F0.044375
sS'nv'
p735
g5
(g6
g7
Ntp736
Rp737
(dp738
S'y'
p739
F0.939124088748
sS'x'
p740
F0.294748098439
sS'z'
p741
F0.176549137868
sbsS'c'
p742
I-16777088
sS'th'
p743
F1.39331686497
sS'n'
p744
(lp745
g718
a(iclasses
subFace
p746
(dp747
S'F'
p748
F0.055
sS'nv'
p749
g5
(g6
g7
Ntp750
Rp751
(dp752
S'y'
p753
F0.762574925632
sS'x'
p754
F0.580410567774
sS'z'
p755
F0.285662474096
sbsS'c'
p756
I-8388608
sS'th'
p757
F1.28109872341
sS'n'
p758
(lp759
(iclasses
subFace
p760
(dp761
S'F'
p762
F0.055625
sS'nv'
p763
g5
(g6
g7
Ntp764
Rp765
(dp766
S'y'
p767
F0.577350295388
sS'x'
p768
F0.57735027412
sS'z'
p769
F0.577350282243
sbsS'c'
p770
I-8355712
sS'th'
p771
F0.955316603184
sS'n'
p772
(lp773
(iclasses
subFace
p774
(dp775
S'F'
p776
F0.056875
sS'nv'
p777
g5
(g6
g7
Ntp778
Rp779
(dp780
S'y'
p781
F0.285662504648
sS'x'
p782
F0.76257495088
sS'z'
p783
F0.580410603087
sbsS'c'
p784
I-16777088
sS'th'
p785
F0.951563477516
sS'n'
p786
(lp787
g536
ag760
a(iclasses
subFace
p788
(dp789
S'F'
p790
F0.0875
sS'nv'
p791
g5
(g6
g7
Ntp792
Rp793
(dp794
S'y'
p795
F0.176549123005
sS'x'
p796
F0.939124048637
sS'z'
p797
F0.294748097698
sbsS'c'
p798
I-8388608
sS'th'
p799
F1.27160441875
sS'n'
p800
(lp801
g774
a(iclasses
subFace
p802
(dp803
S'F'
p804
F0.076875
sS'nv'
p805
g5
(g6
g7
Ntp806
Rp807
(dp808
S'y'
p809
F-0.176549123005
sS'x'
p810
F0.939124048637
sS'z'
p811
F0.294748097698
sbsS'c'
p812
I-16777088
sS'th'
p813
F1.27160441875
sS'n'
p814
(lp815
g522
ag788
a(iclasses
subFace
p816
(dp817
S'F'
p818
F0.075625
sS'nv'
p819
g5
(g6
g7
Ntp820
Rp821
(dp822
S'y'
p823
F-0.356822076991
sS'x'
p824
F0.934172323262
sS'z'
p825
F0.0
sbsS'c'
p826
I-8355712
sS'th'
p827
F1.57079637051
sS'n'
p828
(lp829
(iclasses
subFace
p830
(dp831
S'F'
p832
F0.075
sS'nv'
p833
g5
(g6
g7
Ntp834
Rp835
(dp836
S'y'
p837
F-0.653461568038
sS'x'
p838
F0.756959701302
sS'z'
p839
F0.0
sbsS'c'
p840
I-8388608
sS'th'
p841
F1.57079637051
sS'n'
p842
(lp843
g494
ag816
a(iclasses
subFace
p844
(dp845
S'F'
p846
F0.0725
sS'nv'
p847
g5
(g6
g7
Ntp848
Rp849
(dp850
S'y'
p851
F-0.762574925632
sS'x'
p852
F0.580410578297
sS'z'
p853
F-0.285662480599
sbsS'c'
p854
I-8388608
sS'th'
p855
F1.8604940176
sS'n'
p856
(lp857
g830
ag410
ag466
asS'nextV'
p858
F0.0
sS'v'
p859
(lp860
g30
ag5
(g6
g7
Ntp861
Rp862
(dp863
S'y'
p864
F-0.809016990777
sS'x'
p865
F0.309016991063
sS'z'
p866
F-0.499999999714
sbag5
(g6
g7
Ntp867
Rp868
(dp869
S'y'
p870
F-0.499999999714
sS'x'
p871
F0.809016990777
sS'z'
p872
F-0.309016991063
sbasS'rcUV'
p873
F1.6
sS'rc'
p874
g5
(cclasses
RDConstants
p875
g7
Ntp876
Rp877
(dp878
S'F'
p879
F0.04
sS'del_T'
p880
I4
sS'diffusion_rate_V'
p881
F0.01
sS'del_X2'
p882
F1.0
sS'diffusion_rate_U'
p883
F0.04
sS'k'
p884
F0.06
sS'reaction_rate'
p885
F0.4
sbsS'dcU'
p886
F0.16
sS'ph'
p887
F2.49101305008
sS'en'
p888
(lp889
I56
aI53
aI48
asS'U'
p890
F-0.00192844495177
sS'nextU'
p891
F0.0
sS'dcV'
p892
F0.04
sS'V'
p893
F0.508283143863
sS'i'
p894
I52
sbasS'nextV'
p895
F0.0
sS'v'
p896
(lp897
g30
ag5
(g6
g7
Ntp898
Rp899
(dp900
S'y'
p901
F-0.499999999714
sS'x'
p902
F0.809016990777
sS'z'
p903
F-0.309016991063
sbag5
(g6
g7
Ntp904
Rp905
(dp906
S'y'
p907
F-0.499999999714
sS'x'
p908
F0.809016990777
sS'z'
p909
F0.309016991063
sbasS'rcUV'
p910
F1.6
sS'rc'
p911
g5
(g875
g7
Ntp912
Rp913
(dp914
S'F'
p915
F0.04
sS'del_T'
p916
I4
sS'diffusion_rate_V'
p917
F0.01
sS'del_X2'
p918
F1.0
sS'diffusion_rate_U'
p919
F0.04
sS'k'
p920
F0.06
sS'reaction_rate'
p921
F0.4
sbsS'dcU'
p922
F0.16
sS'ph'
p923
F2.28294467926
sS'en'
p924
(lp925
I40
aI57
aI52
asS'U'
p926
F0.00624074973166
sS'nextU'
p927
F0.0
sS'dcV'
p928
F0.04
sS'V'
p929
F0.50353293214
sS'i'
p930
I56
sbag802
ag382
asS'nextV'
p931
F0.0
sS'v'
p932
(lp933
g899
ag5
(g6
g7
Ntp934
Rp935
(dp936
S'y'
p937
F0.0
sS'x'
p938
F0.999999999428
sS'z'
p939
F0.0
sbag905
asS'rcUV'
p940
F1.6
sS'rc'
p941
g5
(g875
g7
Ntp942
Rp943
(dp944
S'F'
p945
F0.04
sS'del_T'
p946
I4
sS'diffusion_rate_V'
p947
F0.01
sS'del_X2'
p948
F1.0
sS'diffusion_rate_U'
p949
F0.04
sS'k'
p950
F0.06
sS'reaction_rate'
p951
F0.4
sbsS'dcU'
p952
F0.16
sS'ph'
p953
F1.93566012383
sS'en'
p954
(lp955
I56
aI59
aI58
asS'U'
p956
F-0.00825091823936
sS'nextU'
p957
F0.0
sS'dcV'
p958
F0.04
sS'V'
p959
F0.490941762924
sS'i'
p960
I57
sbasS'nextV'
p961
F0.0
sS'v'
p962
(lp963
g935
ag72
ag905
asS'rcUV'
p964
F1.6
sS'rc'
p965
g5
(g875
g7
Ntp966
Rp967
(dp968
S'F'
p969
F0.04
sS'del_T'
p970
I4
sS'diffusion_rate_V'
p971
F0.01
sS'del_X2'
p972
F1.0
sS'diffusion_rate_U'
p973
F0.04
sS'k'
p974
F0.06
sS'reaction_rate'
p975
F0.4
sbsS'dcU'
p976
F0.16
sS'ph'
p977
F1.75662088394
sS'en'
p978
(lp979
I42
aI76
aI57
asS'U'
p980
F0.00617706216872
sS'nextU'
p981
F0.0
sS'dcV'
p982
F0.04
sS'V'
p983
F0.491182212718
sS'i'
p984
I59
sba(iclasses
subFace
p985
(dp986
S'F'
p987
F0.088125
sS'nv'
p988
g5
(g6
g7
Ntp989
Rp990
(dp991
S'y'
p992
F0.356822076991
sS'x'
p993
F0.934172323262
sS'z'
p994
F0.0
sbsS'c'
p995
I-8355712
sS'th'
p996
F1.57079637051
sS'n'
p997
(lp998
g788
ag368
a(iclasses
subFace
p999
(dp1000
S'F'
p1001
F0.089375
sS'nv'
p1002
g5
(g6
g7
Ntp1003
Rp1004
(dp1005
S'y'
p1006
F0.653461568038
sS'x'
p1007
F0.756959701302
sS'z'
p1008
F0.0
sbsS'c'
p1009
I-16777088
sS'th'
p1010
F1.57079637051
sS'n'
p1011
(lp1012
g746
ag985
a(iclasses
subFace
p1013
(dp1014
S'F'
p1015
F0.05875
sS'nv'
p1016
g5
(g6
g7
Ntp1017
Rp1018
(dp1019
S'y'
p1020
F0.762574925632
sS'x'
p1021
F0.580410567774
sS'z'
p1022
F-0.285662474096
sbsS'c'
p1023
I-16744448
sS'th'
p1024
F1.8604940176
sS'n'
p1025
(lp1026
(iclasses
subFace
p1027
(dp1028
S'F'
p1029
F0.04625
sS'nv'
p1030
g5
(g6
g7
Ntp1031
Rp1032
(dp1033
S'y'
p1034
F0.939124042134
sS'x'
p1035
F0.294748097698
sS'z'
p1036
F-0.176549112482
sbsS'c'
p1037
I-16744448
sS'th'
p1038
F1.74827575684
sS'n'
p1039
(lp1040
g732
a(iclasses
subFace
p1041
(dp1042
S'F'
p1043
F0.045625
sS'nv'
p1044
g5
(g6
g7
Ntp1045
Rp1046
(dp1047
S'y'
p1048
F0.934172389591
sS'x'
p1049
F0.0
sS'z'
p1050
F-0.356822086079
sbsS'c'
p1051
I-8355712
sS'th'
p1052
F1.93566012383
sS'n'
p1053
(lp1054
(iclasses
subFace
p1055
(dp1056
S'F'
p1057
F0.045
sS'nv'
p1058
g5
(g6
g7
Ntp1059
Rp1060
(dp1061
S'y'
p1062
F0.939124042134
sS'x'
p1063
F-0.294748097698
sS'z'
p1064
F-0.176549112482
sbsS'c'
p1065
I-8388608
sS'th'
p1066
F1.74827575684
sS'n'
p1067
(lp1068
g130
ag1041
a(iclasses
subFace
p1069
(dp1070
S'F'
p1071
F0.0425
sS'nv'
p1072
g5
(g6
g7
Ntp1073
Rp1074
(dp1075
S'y'
p1076
F0.939124038114
sS'x'
p1077
F-0.294748104202
sS'z'
p1078
F0.176549123005
sbsS'c'
p1079
I-8388608
sS'th'
p1080
F1.39331698418
sS'n'
p1081
(lp1082
g718
ag102
ag1055
asS'nextV'
p1083
F0.0
sS'v'
p1084
(lp1085
g9
ag5
(g6
g7
Ntp1086
Rp1087
(dp1088
S'y'
p1089
F0.809016990777
sS'x'
p1090
F-0.309016991063
sS'z'
p1091
F0.499999999714
sbag5
(g6
g7
Ntp1092
Rp1093
(dp1094
S'y'
p1095
F0.999999969626
sS'x'
p1096
F-1.84188479548e-08
sS'z'
p1097
F0.0
sbasS'rcUV'
p1098
F1.6
sS'rc'
p1099
g5
(g875
g7
Ntp1100
Rp1101
(dp1102
S'F'
p1103
F0.04
sS'del_T'
p1104
I4
sS'diffusion_rate_V'
p1105
F0.01
sS'del_X2'
p1106
F1.0
sS'diffusion_rate_U'
p1107
F0.04
sS'k'
p1108
F0.06
sS'reaction_rate'
p1109
F0.4
sbsS'dcU'
p1110
F0.16
sS'ph'
p1111
F-0.304118186235
sS'en'
p1112
(lp1113
I5
aI0
aI8
asS'U'
p1114
F1.00578069128
sS'nextU'
p1115
F0.0
sS'dcV'
p1116
F0.04
sS'V'
p1117
F-0.00514612905681
sS'i'
p1118
I4
sbasS'nextV'
p1119
F0.0
sS'v'
p1120
(lp1121
g9
ag5
(g6
g7
Ntp1122
Rp1123
(dp1124
S'y'
p1125
F0.999999999428
sS'x'
p1126
F0.0
sS'z'
p1127
F0.0
sbag5
(g6
g7
Ntp1128
Rp1129
(dp1130
S'y'
p1131
F0.809016972358
sS'x'
p1132
F-0.309016991063
sS'z'
p1133
F-0.499999969912
sbasS'rcUV'
p1134
F1.6
sS'rc'
p1135
g5
(g875
g7
Ntp1136
Rp1137
(dp1138
S'F'
p1139
F0.04
sS'del_T'
p1140
I4
sS'diffusion_rate_V'
p1141
F0.01
sS'del_X2'
p1142
F1.0
sS'diffusion_rate_U'
p1143
F0.04
sS'k'
p1144
F0.06
sS'reaction_rate'
p1145
F0.4
sbsS'dcU'
p1146
F0.16
sS'ph'
p1147
F-0.304118186235
sS'en'
p1148
(lp1149
I12
aI9
aI4
asS'U'
p1150
F0.994863186963
sS'nextU'
p1151
F0.0
sS'dcV'
p1152
F0.04
sS'V'
p1153
F0.000192690640688
sS'i'
p1154
I8
sbag1027
a(iclasses
subFace
p1155
(dp1156
S'F'
p1157
F0.046875
sS'nv'
p1158
g5
(g6
g7
Ntp1159
Rp1160
(dp1161
S'y'
p1162
F0.756959740955
sS'x'
p1163
F0.0
sS'z'
p1164
F-0.653461584101
sbsS'c'
p1165
I-16777088
sS'th'
p1166
F2.28294467926
sS'n'
p1167
(lp1168
g326
a(iclasses
subFace
p1169
(dp1170
S'F'
p1171
F0.04875
sS'nv'
p1172
g5
(g6
g7
Ntp1173
Rp1174
(dp1175
S'y'
p1176
F0.580410578297
sS'x'
p1177
F-0.285662470076
sS'z'
p1178
F-0.762574919129
sbsS'c'
p1179
I-16744448
sS'th'
p1180
F2.43808054924
sS'n'
p1181
(lp1182
g144
a(iclasses
subFace
p1183
(dp1184
S'F'
p1185
F0.06375
sS'nv'
p1186
g5
(g6
g7
Ntp1187
Rp1188
(dp1189
S'y'
p1190
F0.294748104202
sS'x'
p1191
F-0.176549123005
sS'z'
p1192
F-0.939124038114
sbsS'c'
p1193
I-16744448
sS'th'
p1194
F2.79086828232
sS'n'
p1195
(lp1196
g312
ag1169
a(iclasses
subFace
p1197
(dp1198
S'F'
p1199
F0.063125
sS'nv'
p1200
g5
(g6
g7
Ntp1201
Rp1202
(dp1203
S'y'
p1204
F1.31445042861e-08
sS'x'
p1205
F-0.356822107347
sS'z'
p1206
F-0.934172381467
sbsS'c'
p1207
I-8355712
sS'th'
p1208
F2.77672886848
sS'n'
p1209
(lp1210
(iclasses
subFace
p1211
(dp1212
S'F'
p1213
F0.0625
sS'nv'
p1214
g5
(g6
g7
Ntp1215
Rp1216
(dp1217
S'y'
p1218
F6.50366290728e-09
sS'x'
p1219
F-0.653461568038
sS'z'
p1220
F-0.756959690779
sbsS'c'
p1221
I-8388608
sS'th'
p1222
F2.42944407463
sS'n'
p1223
(lp1224
g158
a(iclasses
subFace
p1225
(dp1226
S'F'
p1227
F0.084375
sS'nv'
p1228
g5
(g6
g7
Ntp1229
Rp1230
(dp1231
S'y'
p1232
F-0.285662480599
sS'x'
p1233
F-0.762574925632
sS'z'
p1234
F-0.580410578297
sbsS'c'
p1235
I-16777088
sS'th'
p1236
F2.19002914429
sS'n'
p1237
(lp1238
g186
ag1211
ag242
asS'nextV'
p1239
F0.0
sS'v'
p1240
(lp1241
g5
(g6
g7
Ntp1242
Rp1243
(dp1244
S'y'
p1245
F-0.499999999714
sS'x'
p1246
F-0.809016990777
sS'z'
p1247
F-0.309016991063
sbag79
ag5
(g6
g7
Ntp1248
Rp1249
(dp1250
S'y'
p1251
F-0.309016991063
sS'x'
p1252
F-0.499999999714
sS'z'
p1253
F-0.809016990777
sbasS'rcUV'
p1254
F1.6
sS'rc'
p1255
g5
(g875
g7
Ntp1256
Rp1257
(dp1258
S'F'
p1259
F0.04
sS'del_T'
p1260
I4
sS'diffusion_rate_V'
p1261
F0.01
sS'del_X2'
p1262
F1.0
sS'diffusion_rate_U'
p1263
F0.04
sS'k'
p1264
F0.06
sS'reaction_rate'
p1265
F0.4
sbsS'dcU'
p1266
F0.16
sS'ph'
p1267
F-1.92921841145
sS'en'
p1268
(lp1269
I34
aI36
aI69
asS'U'
p1270
F0.00865970738232
sS'nextU'
p1271
F0.0
sS'dcV'
p1272
F0.04
sS'V'
p1273
F0.498375044204
sS'i'
p1274
I71
sbag1197
asS'nextV'
p1275
F0.0
sS'v'
p1276
(lp1277
g79
ag5
(g6
g7
Ntp1278
Rp1279
(dp1280
S'y'
p1281
F0.309016991063
sS'x'
p1282
F-0.499999999714
sS'z'
p1283
F-0.809016990777
sbag5
(g6
g7
Ntp1284
Rp1285
(dp1286
S'y'
p1287
F-0.309016972644
sS'x'
p1288
F-0.499999999714
sS'z'
p1289
F-0.809016960975
sbasS'rcUV'
p1290
F1.6
sS'rc'
p1291
g5
(g875
g7
Ntp1292
Rp1293
(dp1294
S'F'
p1295
F0.04
sS'del_T'
p1296
I4
sS'diffusion_rate_V'
p1297
F0.01
sS'del_X2'
p1298
F1.0
sS'diffusion_rate_U'
p1299
F0.04
sS'k'
p1300
F0.06
sS'reaction_rate'
p1301
F0.4
sbsS'dcU'
p1302
F0.16
sS'ph'
p1303
F-1.57079637051
sS'en'
p1304
(lp1305
I15
aI71
aI37
asS'U'
p1306
F-0.00418149586767
sS'nextU'
p1307
F0.0
sS'dcV'
p1308
F0.04
sS'V'
p1309
F0.504482390359
sS'i'
p1310
I36
sbag1183
ag270
asS'nextV'
p1311
F0.0
sS'v'
p1312
(lp1313
g1279
ag5
(g6
g7
Ntp1314
Rp1315
(dp1316
S'y'
p1317
F1.84188479548e-08
sS'x'
p1318
F0.0
sS'z'
p1319
F-0.999999969626
sbag1285
asS'rcUV'
p1320
F1.6
sS'rc'
p1321
g5
(g875
g7
Ntp1322
Rp1323
(dp1324
S'F'
p1325
F0.04
sS'del_T'
p1326
I4
sS'diffusion_rate_V'
p1327
F0.01
sS'del_X2'
p1328
F1.0
sS'diffusion_rate_U'
p1329
F0.04
sS'k'
p1330
F0.06
sS'reaction_rate'
p1331
F0.4
sbsS'dcU'
p1332
F0.16
sS'ph'
p1333
F-1.5707962513
sS'en'
p1334
(lp1335
I36
aI38
aI39
asS'U'
p1336
F0.00997275114059
sS'nextU'
p1337
F0.0
sS'dcV'
p1338
F0.04
sS'V'
p1339
F0.50750079751
sS'i'
p1340
I37
sbasS'nextV'
p1341
F0.0
sS'v'
p1342
(lp1343
g1279
ag58
ag1315
asS'rcUV'
p1344
F1.6
sS'rc'
p1345
g5
(g875
g7
Ntp1346
Rp1347
(dp1348
S'F'
p1349
F0.04
sS'del_T'
p1350
I4
sS'diffusion_rate_V'
p1351
F0.01
sS'del_X2'
p1352
F1.0
sS'diffusion_rate_U'
p1353
F0.04
sS'k'
p1354
F0.06
sS'reaction_rate'
p1355
F0.4
sbsS'dcU'
p1356
F0.16
sS'ph'
p1357
F-0.539671421051
sS'en'
p1358
(lp1359
I75
aI14
aI37
asS'U'
p1360
F-0.00643150322139
sS'nextU'
p1361
F0.0
sS'dcV'
p1362
F0.04
sS'V'
p1363
F0.501740699634
sS'i'
p1364
I38
sbag1155
asS'nextV'
p1365
F0.0
sS'v'
p1366
(lp1367
g5
(g6
g7
Ntp1368
Rp1369
(dp1370
S'y'
p1371
F0.809016990777
sS'x'
p1372
F-0.309016991063
sS'z'
p1373
F-0.499999999714
sbag58
ag5
(g6
g7
Ntp1374
Rp1375
(dp1376
S'y'
p1377
F0.309016991063
sS'x'
p1378
F-0.499999969912
sS'z'
p1379
F-0.809016972358
sbasS'rcUV'
p1380
F1.6
sS'rc'
p1381
g5
(g875
g7
Ntp1382
Rp1383
(dp1384
S'F'
p1385
F0.04
sS'del_T'
p1386
I4
sS'diffusion_rate_V'
p1387
F0.01
sS'del_X2'
p1388
F1.0
sS'diffusion_rate_U'
p1389
F0.04
sS'k'
p1390
F0.06
sS'reaction_rate'
p1391
F0.4
sbsS'dcU'
p1392
F0.16
sS'ph'
p1393
F-0.457366496325
sS'en'
p1394
(lp1395
I13
aI38
aI11
asS'U'
p1396
F1.0062291678
sS'nextU'
p1397
F0.0
sS'dcV'
p1398
F0.04
sS'V'
p1399
F-0.00500694522634
sS'i'
p1400
I14
sbag1041
asS'nextV'
p1401
F0.0
sS'v'
p1402
(lp1403
g5
(g6
g7
Ntp1404
Rp1405
(dp1406
S'y'
p1407
F0.809016972358
sS'x'
p1408
F0.309016991063
sS'z'
p1409
F-0.499999969912
sbag58
ag1129
asS'rcUV'
p1410
F1.6
sS'rc'
p1411
g5
(g875
g7
Ntp1412
Rp1413
(dp1414
S'F'
p1415
F0.04
sS'del_T'
p1416
I4
sS'diffusion_rate_V'
p1417
F0.01
sS'del_X2'
p1418
F1.0
sS'diffusion_rate_U'
p1419
F0.04
sS'k'
p1420
F0.06
sS'reaction_rate'
p1421
F0.4
sbsS'dcU'
p1422
F0.16
sS'ph'
p1423
F0.0
sS'en'
p1424
(lp1425
I28
aI14
aI9
asS'U'
p1426
F1.00473165698
sS'nextU'
p1427
F0.0
sS'dcV'
p1428
F0.04
sS'V'
p1429
F-0.00181328505278
sS'i'
p1430
I11
sbasS'nextV'
p1431
F0.0
sS'v'
p1432
(lp1433
g1123
ag1405
ag1129
asS'rcUV'
p1434
F1.6
sS'rc'
p1435
g5
(g875
g7
Ntp1436
Rp1437
(dp1438
S'F'
p1439
F0.04
sS'del_T'
p1440
I4
sS'diffusion_rate_V'
p1441
F0.01
sS'del_X2'
p1442
F1.0
sS'diffusion_rate_U'
p1443
F0.04
sS'k'
p1444
F0.06
sS'reaction_rate'
p1445
F0.4
sbsS'dcU'
p1446
F0.16
sS'ph'
p1447
F0.0
sS'en'
p1448
(lp1449
I8
aI10
aI11
asS'U'
p1450
F0.997136946768
sS'nextU'
p1451
F0.0
sS'dcV'
p1452
F0.04
sS'V'
p1453
F-0.00279991002753
sS'i'
p1454
I9
sbag1013
asS'nextV'
p1455
F0.0
sS'v'
p1456
(lp1457
g1123
ag16
ag1405
asS'rcUV'
p1458
F1.6
sS'rc'
p1459
g5
(g875
g7
Ntp1460
Rp1461
(dp1462
S'F'
p1463
F0.04
sS'del_T'
p1464
I4
sS'diffusion_rate_V'
p1465
F0.01
sS'del_X2'
p1466
F1.0
sS'diffusion_rate_U'
p1467
F0.04
sS'k'
p1468
F0.06
sS'reaction_rate'
p1469
F0.4
sbsS'dcU'
p1470
F0.16
sS'ph'
p1471
F0.304118186235
sS'en'
p1472
(lp1473
I7
aI9
aI30
asS'U'
p1474
F0.996125834063
sS'nextU'
p1475
F0.0
sS'dcV'
p1476
F0.04
sS'V'
p1477
F0.00503011420369
sS'i'
p1478
I10
sbag340
ag999
asS'nextV'
p1479
F0.0
sS'v'
p1480
(lp1481
g5
(g6
g7
Ntp1482
Rp1483
(dp1484
S'y'
p1485
F0.809016990777
sS'x'
p1486
F0.309016991063
sS'z'
p1487
F-0.499999999714
sbag16
ag5
(g6
g7
Ntp1488
Rp1489
(dp1490
S'y'
p1491
F0.499999999714
sS'x'
p1492
F0.809016960975
sS'z'
p1493
F-0.309016972644
sbasS'rcUV'
p1494
F1.6
sS'rc'
p1495
g5
(g875
g7
Ntp1496
Rp1497
(dp1498
S'F'
p1499
F0.04
sS'del_T'
p1500
I4
sS'diffusion_rate_V'
p1501
F0.01
sS'del_X2'
p1502
F1.0
sS'diffusion_rate_U'
p1503
F0.04
sS'k'
p1504
F0.06
sS'reaction_rate'
p1505
F0.4
sbsS'dcU'
p1506
F0.16
sS'ph'
p1507
F0.650579631329
sS'en'
p1508
(lp1509
I10
aI29
aI79
asS'U'
p1510
F-0.00351514434442
sS'nextU'
p1511
F0.0
sS'dcV'
p1512
F0.04
sS'V'
p1513
F0.494549899362
sS'i'
p1514
I30
sbasS'nextV'
p1515
F0.0
sS'v'
p1516
(lp1517
g5
(g6
g7
Ntp1518
Rp1519
(dp1520
S'y'
p1521
F0.499999999714
sS'x'
p1522
F0.809016990777
sS'z'
p1523
F-0.309016991063
sbag16
ag5
(g6
g7
Ntp1524
Rp1525
(dp1526
S'y'
p1527
F0.499999999714
sS'x'
p1528
F0.809016990777
sS'z'
p1529
F0.309016991063
sbasS'rcUV'
p1530
F1.6
sS'rc'
p1531
g5
(g875
g7
Ntp1532
Rp1533
(dp1534
S'F'
p1535
F0.04
sS'del_T'
p1536
I4
sS'diffusion_rate_V'
p1537
F0.01
sS'del_X2'
p1538
F1.0
sS'diffusion_rate_U'
p1539
F0.04
sS'k'
p1540
F0.06
sS'reaction_rate'
p1541
F0.4
sbsS'dcU'
p1542
F0.16
sS'ph'
p1543
F0.858647882938
sS'en'
p1544
(lp1545
I24
aI77
aI30
asS'U'
p1546
F0.00107951555401
sS'nextU'
p1547
F0.0
sS'dcV'
p1548
F0.04
sS'V'
p1549
F0.494806419592
sS'i'
p1550
I79
sbasS'nextV'
p1551
F0.0
sS'v'
p1552
(lp1553
g5
(g6
g7
Ntp1554
Rp1555
(dp1556
S'y'
p1557
F0.0
sS'x'
p1558
F0.999999999428
sS'z'
p1559
F0.0
sbag1519
ag1525
asS'rcUV'
p1560
F1.6
sS'rc'
p1561
g5
(g875
g7
Ntp1562
Rp1563
(dp1564
S'F'
p1565
F0.04
sS'del_T'
p1566
I4
sS'diffusion_rate_V'
p1567
F0.01
sS'del_X2'
p1568
F1.0
sS'diffusion_rate_U'
p1569
F0.04
sS'k'
p1570
F0.06
sS'reaction_rate'
p1571
F0.4
sbsS'dcU'
p1572
F0.16
sS'ph'
p1573
F1.20593249798
sS'en'
p1574
(lp1575
I76
aI78
aI79
asS'U'
p1576
F-0.00412807799876
sS'nextU'
p1577
F0.0
sS'dcV'
p1578
F0.04
sS'V'
p1579
F0.503923187032
sS'i'
p1580
I77
sbasS'nextV'
p1581
F0.0
sS'v'
p1582
(lp1583
g72
ag1555
ag1525
asS'rcUV'
p1584
F1.6
sS'rc'
p1585
g5
(g875
g7
Ntp1586
Rp1587
(dp1588
S'F'
p1589
F0.04
sS'del_T'
p1590
I4
sS'diffusion_rate_V'
p1591
F0.01
sS'del_X2'
p1592
F1.0
sS'diffusion_rate_U'
p1593
F0.04
sS'k'
p1594
F0.06
sS'reaction_rate'
p1595
F0.4
sbsS'dcU'
p1596
F0.16
sS'ph'
p1597
F1.38497173786
sS'en'
p1598
(lp1599
I27
aI59
aI77
asS'U'
p1600
F0.00025393255055
sS'nextU'
p1601
F0.0
sS'dcV'
p1602
F0.04
sS'V'
p1603
F0.501148667186
sS'i'
p1604
I76
sbasS'nextV'
p1605
F0.0
sS'v'
p1606
(lp1607
g5
(g6
g7
Ntp1608
Rp1609
(dp1610
S'y'
p1611
F0.309016991063
sS'x'
p1612
F0.499999969912
sS'z'
p1613
F0.809016972358
sbag72
ag5
(g6
g7
Ntp1614
Rp1615
(dp1616
S'y'
p1617
F0.499999999714
sS'x'
p1618
F0.809016960975
sS'z'
p1619
F0.309016972644
sbasS'rcUV'
p1620
F1.6
sS'rc'
p1621
g5
(g875
g7
Ntp1622
Rp1623
(dp1624
S'F'
p1625
F0.04
sS'del_T'
p1626
I4
sS'diffusion_rate_V'
p1627
F0.01
sS'del_X2'
p1628
F1.0
sS'diffusion_rate_U'
p1629
F0.04
sS'k'
p1630
F0.06
sS'reaction_rate'
p1631
F0.4
sbsS'dcU'
p1632
F0.16
sS'ph'
p1633
F1.21237421036
sS'en'
p1634
(lp1635
I62
aI25
aI76
asS'U'
p1636
F0.00868372432888
sS'nextU'
p1637
F0.0
sS'dcV'
p1638
F0.04
sS'V'
p1639
F0.505996847525
sS'i'
p1640
I27
sba(iclasses
subFace
p1641
(dp1642
S'F'
p1643
F0.05625
sS'nv'
p1644
g5
(g6
g7
Ntp1645
Rp1646
(dp1647
S'y'
p1648
F0.580410578297
sS'x'
p1649
F0.285662470076
sS'z'
p1650
F0.762574919129
sbsS'c'
p1651
I-16744448
sS'th'
p1652
F0.703512132168
sS'n'
p1653
(lp1654
g704
ag760
ag564
asS'nextV'
p1655
F0.0
sS'v'
p1656
(lp1657
g5
(g6
g7
Ntp1658
Rp1659
(dp1660
S'y'
p1661
F0.809016990777
sS'x'
p1662
F0.309016991063
sS'z'
p1663
F0.499999999714
sbag44
ag1609
asS'rcUV'
p1664
F1.6
sS'rc'
p1665
g5
(g875
g7
Ntp1666
Rp1667
(dp1668
S'F'
p1669
F0.04
sS'del_T'
p1670
I4
sS'diffusion_rate_V'
p1671
F0.01
sS'del_X2'
p1672
F1.0
sS'diffusion_rate_U'
p1673
F0.04
sS'k'
p1674
F0.06
sS'reaction_rate'
p1675
F0.4
sbsS'dcU'
p1676
F0.16
sS'ph'
p1677
F0.457366496325
sS'en'
p1678
(lp1679
I6
aI25
aI63
asS'U'
p1680
F0.000176843255758
sS'nextU'
p1681
F0.0
sS'dcV'
p1682
F0.04
sS'V'
p1683
F0.507640842348
sS'i'
p1684
I26
sbag746
asS'nextV'
p1685
F0.0
sS'v'
p1686
(lp1687
g1659
ag1609
ag1615
asS'rcUV'
p1688
F1.6
sS'rc'
p1689
g5
(g875
g7
Ntp1690
Rp1691
(dp1692
S'F'
p1693
F0.04
sS'del_T'
p1694
I4
sS'diffusion_rate_V'
p1695
F0.01
sS'del_X2'
p1696
F1.0
sS'diffusion_rate_U'
p1697
F0.04
sS'k'
p1698
F0.06
sS'reaction_rate'
p1699
F0.4
sbsS'dcU'
p1700
F0.16
sS'ph'
p1701
F0.785398125648
sS'en'
p1702
(lp1703
I27
aI26
aI24
asS'U'
p1704
F0.00519147049636
sS'nextU'
p1705
F0.0
sS'dcV'
p1706
F0.04
sS'V'
p1707
F0.506601700559
sS'i'
p1708
I25
sbag732
ag999
asS'nextV'
p1709
F0.0
sS'v'
p1710
(lp1711
g16
ag1659
ag1615
asS'rcUV'
p1712
F1.6
sS'rc'
p1713
g5
(g875
g7
Ntp1714
Rp1715
(dp1716
S'F'
p1717
F0.04
sS'del_T'
p1718
I4
sS'diffusion_rate_V'
p1719
F0.01
sS'del_X2'
p1720
F1.0
sS'diffusion_rate_U'
p1721
F0.04
sS'k'
p1722
F0.06
sS'reaction_rate'
p1723
F0.4
sbsS'dcU'
p1724
F0.16
sS'ph'
p1725
F0.650579631329
sS'en'
p1726
(lp1727
I25
aI7
aI79
asS'U'
p1728
F0.00764844752848
sS'nextU'
p1729
F0.0
sS'dcV'
p1730
F0.04
sS'V'
p1731
F0.507269741967
sS'i'
p1732
I24
sbag1027
asS'nextV'
p1733
F0.0
sS'v'
p1734
(lp1735
g5
(g6
g7
Ntp1736
Rp1737
(dp1738
S'y'
p1739
F0.809016960975
sS'x'
p1740
F0.309016972644
sS'z'
p1741
F0.499999999714
sbag16
ag1093
asS'rcUV'
p1742
F1.6
sS'rc'
p1743
g5
(g875
g7
Ntp1744
Rp1745
(dp1746
S'F'
p1747
F0.04
sS'del_T'
p1748
I4
sS'diffusion_rate_V'
p1749
F0.01
sS'del_X2'
p1750
F1.0
sS'diffusion_rate_U'
p1751
F0.04
sS'k'
p1752
F0.06
sS'reaction_rate'
p1753
F0.4
sbsS'dcU'
p1754
F0.16
sS'ph'
p1755
F0.304118156433
sS'en'
p1756
(lp1757
I5
aI24
aI10
asS'U'
p1758
F1.00716872886
sS'nextU'
p1759
F0.0
sS'dcV'
p1760
F0.04
sS'V'
p1761
F0.00447415094823
sS'i'
p1762
I7
sbag1069
asS'nextV'
p1763
F0.0
sS'v'
p1764
(lp1765
g1087
ag1737
ag1093
asS'rcUV'
p1766
F1.6
sS'rc'
p1767
g5
(g875
g7
Ntp1768
Rp1769
(dp1770
S'F'
p1771
F0.04
sS'del_T'
p1772
I4
sS'diffusion_rate_V'
p1773
F0.01
sS'del_X2'
p1774
F1.0
sS'diffusion_rate_U'
p1775
F0.04
sS'k'
p1776
F0.06
sS'reaction_rate'
p1777
F0.4
sbsS'dcU'
p1778
F0.16
sS'ph'
p1779
F-1.40707481222e-08
sS'en'
p1780
(lp1781
I6
aI7
aI4
asS'U'
p1782
F1.00739035755
sS'nextU'
p1783
F0.0
sS'dcV'
p1784
F0.04
sS'V'
p1785
F-0.00416632508859
sS'i'
p1786
I5
sbag1641
ag690
asS'nextV'
p1787
F0.0
sS'v'
p1788
(lp1789
g1087
ag44
ag1737
asS'rcUV'
p1790
F1.6
sS'rc'
p1791
g5
(g875
g7
Ntp1792
Rp1793
(dp1794
S'F'
p1795
F0.04
sS'del_T'
p1796
I4
sS'diffusion_rate_V'
p1797
F0.01
sS'del_X2'
p1798
F1.0
sS'diffusion_rate_U'
p1799
F0.04
sS'k'
p1800
F0.06
sS'reaction_rate'
p1801
F0.4
sbsS'dcU'
p1802
F0.16
sS'ph'
p1803
F-8.59182236468e-09
sS'en'
p1804
(lp1805
I5
aI26
aI3
asS'U'
p1806
F1.00658573769
sS'nextU'
p1807
F0.0
sS'dcV'
p1808
F0.04
sS'V'
p1809
F-0.00868623517454
sS'i'
p1810
I6
sbag676
asS'nextV'
p1811
F0.0
sS'v'
p1812
(lp1813
g5
(g6
g7
Ntp1814
Rp1815
(dp1816
S'y'
p1817
F0.309016994297
sS'x'
p1818
F-0.500000004946
sS'z'
p1819
F0.809016999243
sbag44
ag5
(g6
g7
Ntp1820
Rp1821
(dp1822
S'y'
p1823
F0.809016999243
sS'x'
p1824
F-0.309016994297
sS'z'
p1825
F0.500000004946
sbasS'rcUV'
p1826
F1.6
sS'rc'
p1827
g5
(g875
g7
Ntp1828
Rp1829
(dp1830
S'F'
p1831
F0.04
sS'del_T'
p1832
I4
sS'diffusion_rate_V'
p1833
F0.01
sS'del_X2'
p1834
F1.0
sS'diffusion_rate_U'
p1835
F0.04
sS'k'
p1836
F0.06
sS'reaction_rate'
p1837
F0.4
sbsS'dcU'
p1838
F0.16
sS'ph'
p1839
F-0.457366496325
sS'en'
p1840
(lp1841
I20
aI6
aI1
asS'U'
p1842
F0.99469496496
sS'nextU'
p1843
F0.0
sS'dcV'
p1844
F0.04
sS'V'
p1845
F0.00172413606197
sS'i'
p1846
I3
sbasS'nextV'
p1847
F0.0
sS'v'
p1848
(lp1849
g5
(g6
g7
Ntp1850
Rp1851
(dp1852
S'y'
p1853
F0.500000004946
sS'x'
p1854
F-0.809016999243
sS'z'
p1855
F0.309016994297
sbag1815
ag1821
asS'rcUV'
p1856
F1.6
sS'rc'
p1857
g5
(g875
g7
Ntp1858
Rp1859
(dp1860
S'F'
p1861
F0.04
sS'del_T'
p1862
I4
sS'diffusion_rate_V'
p1863
F0.01
sS'del_X2'
p1864
F1.0
sS'diffusion_rate_U'
p1865
F0.04
sS'k'
p1866
F0.06
sS'reaction_rate'
p1867
F0.4
sbsS'dcU'
p1868
F0.16
sS'ph'
p1869
F-0.785398185253
sS'en'
p1870
(lp1871
I0
aI2
aI3
asS'U'
p1872
F1.00488649588
sS'nextU'
p1873
F0.0
sS'dcV'
p1874
F0.04
sS'V'
p1875
F-0.00719328736886
sS'i'
p1876
I1
sbasS'nextV'
p1877
F0.0
sS'v'
p1878
(lp1879
g1851
ag86
ag1815
asS'rcUV'
p1880
F1.6
sS'rc'
p1881
g5
(g875
g7
Ntp1882
Rp1883
(dp1884
S'F'
p1885
F0.04
sS'del_T'
p1886
I4
sS'diffusion_rate_V'
p1887
F0.01
sS'del_X2'
p1888
F1.0
sS'diffusion_rate_U'
p1889
F0.04
sS'k'
p1890
F0.06
sS'reaction_rate'
p1891
F0.4
sbsS'dcU'
p1892
F0.16
sS'ph'
p1893
F-1.21237421036
sS'en'
p1894
(lp1895
I22
aI19
aI1
asS'U'
p1896
F0.990477694198
sS'nextU'
p1897
F0.0
sS'dcV'
p1898
F0.04
sS'V'
p1899
F0.00328783132136
sS'i'
p1900
I2
sbag634
a(iclasses
subFace
p1901
(dp1902
S'F'
p1903
F0.050625
sS'nv'
p1904
g5
(g6
g7
Ntp1905
Rp1906
(dp1907
S'y'
p1908
F0.356822076991
sS'x'
p1909
F-0.934172323262
sS'z'
p1910
F0.0
sbsS'c'
p1911
I-8355712
sS'th'
p1912
F1.57079637051
sS'n'
p1913
(lp1914
g172
ag648
ag116
asS'nextV'
p1915
F0.0
sS'v'
p1916
(lp1917
g5
(g6
g7
Ntp1918
Rp1919
(dp1920
S'y'
p1921
F0.499999999714
sS'x'
p1922
F-0.809016990777
sS'z'
p1923
F-0.309016991063
sbag5
(g6
g7
Ntp1924
Rp1925
(dp1926
S'y'
p1927
F0.0
sS'x'
p1928
F-0.999999999428
sS'z'
p1929
F0.0
sbag5
(g6
g7
Ntp1930
Rp1931
(dp1932
S'y'
p1933
F0.499999999714
sS'x'
p1934
F-0.809016990777
sS'z'
p1935
F0.309016991063
sbasS'rcUV'
p1936
F1.6
sS'rc'
p1937
g5
(g875
g7
Ntp1938
Rp1939
(dp1940
S'F'
p1941
F0.04
sS'del_T'
p1942
I4
sS'diffusion_rate_V'
p1943
F0.01
sS'del_X2'
p1944
F1.0
sS'diffusion_rate_U'
p1945
F0.04
sS'k'
p1946
F0.06
sS'reaction_rate'
p1947
F0.4
sbsS'dcU'
p1948
F0.16
sS'ph'
p1949
F-1.20593249798
sS'en'
p1950
(lp1951
I18
aI19
aI16
asS'U'
p1952
F1.00044128671
sS'nextU'
p1953
F0.0
sS'dcV'
p1954
F0.04
sS'V'
p1955
F-0.00146721675992
sS'i'
p1956
I17
sbasS'nextV'
p1957
F0.0
sS'v'
p1958
(lp1959
g1925
ag86
ag1931
asS'rcUV'
p1960
F1.6
sS'rc'
p1961
g5
(g875
g7
Ntp1962
Rp1963
(dp1964
S'F'
p1965
F0.04
sS'del_T'
p1966
I4
sS'diffusion_rate_V'
p1967
F0.01
sS'del_X2'
p1968
F1.0
sS'diffusion_rate_U'
p1969
F0.04
sS'k'
p1970
F0.06
sS'reaction_rate'
p1971
F0.4
sbsS'dcU'
p1972
F0.16
sS'ph'
p1973
F-1.38497173786
sS'en'
p1974
(lp1975
I2
aI32
aI17
asS'U'
p1976
F0.993490751833
sS'nextU'
p1977
F0.0
sS'dcV'
p1978
F0.04
sS'V'
p1979
F0.00279169064015
sS'i'
p1980
I19
sbag200
ag620
asS'nextV'
p1981
F0.0
sS'v'
p1982
(lp1983
g86
ag5
(g6
g7
Ntp1984
Rp1985
(dp1986
S'y'
p1987
F0.0
sS'x'
p1988
F-0.999999999428
sS'z'
p1989
F0.0
sbag5
(g6
g7
Ntp1990
Rp1991
(dp1992
S'y'
p1993
F-0.499999969912
sS'x'
p1994
F-0.809016972358
sS'z'
p1995
F0.309016991063
sbasS'rcUV'
p1996
F1.6
sS'rc'
p1997
g5
(g875
g7
Ntp1998
Rp1999
(dp2000
S'F'
p2001
F0.04
sS'del_T'
p2002
I4
sS'diffusion_rate_V'
p2003
F0.01
sS'del_X2'
p2004
F1.0
sS'diffusion_rate_U'
p2005
F0.04
sS'k'
p2006
F0.06
sS'reaction_rate'
p2007
F0.4
sbsS'dcU'
p2008
F0.16
sS'ph'
p2009
F-1.75662088394
sS'en'
p2010
(lp2011
I19
aI33
aI67
asS'U'
p2012
F-0.00303212879226
sS'nextU'
p2013
F0.0
sS'dcV'
p2014
F0.04
sS'V'
p2015
F0.50386899244
sS'i'
p2016
I32
sba(iclasses
subFace
p2017
(dp2018
S'F'
p2019
F0.080625
sS'nv'
p2020
g5
(g6
g7
Ntp2021
Rp2022
(dp2023
S'y'
p2024
F-0.577350246271
sS'x'
p2025
F-0.577350246271
sS'z'
p2026
F0.577350246271
sbsS'c'
p2027
I-8355712
sS'th'
p2028
F0.955316603184
sS'n'
p2029
(lp2030
g620
a(iclasses
subFace
p2031
(dp2032
S'F'
p2033
F0.08
sS'nv'
p2034
g5
(g6
g7
Ntp2035
Rp2036
(dp2037
S'y'
p2038
F-0.762574925632
sS'x'
p2039
F-0.580410578297
sS'z'
p2040
F0.285662480599
sbsS'c'
p2041
I-8388608
sS'th'
p2042
F1.28109872341
sS'n'
p2043
(lp2044
(iclasses
subFace
p2045
(dp2046
S'F'
p2047
F0.069375
sS'nv'
p2048
g5
(g6
g7
Ntp2049
Rp2050
(dp2051
S'y'
p2052
F-0.939124048637
sS'x'
p2053
F-0.294748097698
sS'z'
p2054
F0.176549123005
sbsS'c'
p2055
I-16777088
sS'th'
p2056
F1.39331698418
sS'n'
p2057
(lp2058
(iclasses
subFace
p2059
(dp2060
S'F'
p2061
F0.068125
sS'nv'
p2062
g5
(g6
g7
Ntp2063
Rp2064
(dp2065
S'y'
p2066
F-0.934172323262
sS'x'
p2067
F0.0
sS'z'
p2068
F0.356822076991
sbsS'c'
p2069
I-8355712
sS'th'
p2070
F1.20593249798
sS'n'
p2071
(lp2072
(iclasses
subFace
p2073
(dp2074
S'F'
p2075
F0.06875
sS'nv'
p2076
g5
(g6
g7
Ntp2077
Rp2078
(dp2079
S'y'
p2080
F-0.756959701302
sS'x'
p2081
F0.0
sS'z'
p2082
F0.653461568038
sbsS'c'
p2083
I-16744448
sS'th'
p2084
F0.858647882938
sS'n'
p2085
(lp2086
g2059
a(iclasses
subFace
p2087
(dp2088
S'F'
p2089
F0.08125
sS'nv'
p2090
g5
(g6
g7
Ntp2091
Rp2092
(dp2093
S'y'
p2094
F-0.580410578297
sS'x'
p2095
F-0.285662480599
sS'z'
p2096
F0.762574925632
sbsS'c'
p2097
I-16744448
sS'th'
p2098
F0.703512132168
sS'n'
p2099
(lp2100
g2073
ag2017
a(iclasses
subFace
p2101
(dp2102
S'F'
p2103
F0.054375
sS'nv'
p2104
g5
(g6
g7
Ntp2105
Rp2106
(dp2107
S'y'
p2108
F-0.294748098439
sS'x'
p2109
F-0.176549137868
sS'z'
p2110
F0.939124088748
sbsS'c'
p2111
I-16777088
sS'th'
p2112
F0.350724309683
sS'n'
p2113
(lp2114
g2087
ag592
a(iclasses
subFace
p2115
(dp2116
S'F'
p2117
F0.0775
sS'nv'
p2118
g5
(g6
g7
Ntp2119
Rp2120
(dp2121
S'y'
p2122
F-0.294748097698
sS'x'
p2123
F0.176549123005
sS'z'
p2124
F0.939124048637
sbsS'c'
p2125
I-8388608
sS'th'
p2126
F0.350724458694
sS'n'
p2127
(lp2128
g550
a(iclasses
subFace
p2129
(dp2130
S'F'
p2131
F0.066875
sS'nv'
p2132
g5
(g6
g7
Ntp2133
Rp2134
(dp2135
S'y'
p2136
F-0.580410567774
sS'x'
p2137
F0.285662474096
sS'z'
p2138
F0.762574925632
sbsS'c'
p2139
I-16777088
sS'th'
p2140
F0.703512132168
sS'n'
p2141
(lp2142
g2073
ag508
ag2115
asS'nextV'
p2143
F0.0
sS'v'
p2144
(lp2145
g5
(g6
g7
Ntp2146
Rp2147
(dp2148
S'y'
p2149
F-0.309016991063
sS'x'
p2150
F0.499999999714
sS'z'
p2151
F0.809016990777
sbag37
ag5
(g6
g7
Ntp2152
Rp2153
(dp2154
S'y'
p2155
F-0.809016960975
sS'x'
p2156
F0.309016972644
sS'z'
p2157
F0.499999999714
sbasS'rcUV'
p2158
F1.6
sS'rc'
p2159
g5
(g875
g7
Ntp2160
Rp2161
(dp2162
S'F'
p2163
F0.04
sS'del_T'
p2164
I4
sS'diffusion_rate_V'
p2165
F0.01
sS'del_X2'
p2166
F1.0
sS'diffusion_rate_U'
p2167
F0.04
sS'k'
p2168
F0.06
sS'reaction_rate'
p2169
F0.4
sbsS'dcU'
p2170
F0.16
sS'ph'
p2171
F2.68422603607
sS'en'
p2172
(lp2173
I46
aI41
aI60
asS'U'
p2174
F-0.005178747233
sS'nextU'
p2175
F0.0
sS'dcV'
p2176
F0.04
sS'V'
p2177
F0.50583217293
sS'i'
p2178
I43
sbag2101
asS'nextV'
p2179
F0.0
sS'v'
p2180
(lp2181
g37
ag5
(g6
g7
Ntp2182
Rp2183
(dp2184
S'y'
p2185
F-0.309016991063
sS'x'
p2186
F0.499999999714
sS'z'
p2187
F0.809016990777
sbag5
(g6
g7
Ntp2188
Rp2189
(dp2190
S'y'
p2191
F0.0
sS'x'
p2192
F0.0
sS'z'
p2193
F0.999999999428
sbasS'rcUV'
p2194
F1.6
sS'rc'
p2195
g5
(g875
g7
Ntp2196
Rp2197
(dp2198
S'F'
p2199
F0.04
sS'del_T'
p2200
I4
sS'diffusion_rate_V'
p2201
F0.01
sS'del_X2'
p2202
F1.0
sS'diffusion_rate_U'
p2203
F0.04
sS'k'
p2204
F0.06
sS'reaction_rate'
p2205
F0.4
sbsS'dcU'
p2206
F0.16
sS'ph'
p2207
F2.60192131996
sS'en'
p2208
(lp2209
I61
aI43
aI23
asS'U'
p2210
F0.0062096901238
sS'nextU'
p2211
F0.0
sS'dcV'
p2212
F0.04
sS'V'
p2213
F0.506183508784
sS'i'
p2214
I60
sbasS'nextV'
p2215
F0.0
sS'v'
p2216
(lp2217
g5
(g6
g7
Ntp2218
Rp2219
(dp2220
S'y'
p2221
F-0.309016972644
sS'x'
p2222
F-0.499999999714
sS'z'
p2223
F0.809016960975
sbag37
ag5
(g6
g7
Ntp2224
Rp2225
(dp2226
S'y'
p2227
F1.84188479548e-08
sS'x'
p2228
F0.0
sS'z'
p2229
F0.999999969626
sbasS'rcUV'
p2230
F1.6
sS'rc'
p2231
g5
(g875
g7
Ntp2232
Rp2233
(dp2234
S'F'
p2235
F0.04
sS'del_T'
p2236
I4
sS'diffusion_rate_V'
p2237
F0.01
sS'del_X2'
p2238
F1.0
sS'diffusion_rate_U'
p2239
F0.04
sS'k'
p2240
F0.06
sS'reaction_rate'
p2241
F0.4
sbsS'dcU'
p2242
F0.16
sS'ph'
p2243
F-2.60192108154
sS'en'
p2244
(lp2245
I66
aI21
aI60
asS'U'
p2246
F-0.00134616158903
sS'nextU'
p2247
F0.0
sS'dcV'
p2248
F0.04
sS'V'
p2249
F0.49825433176
sS'i'
p2250
I23
sbasS'nextV'
p2251
F0.0
sS'v'
p2252
(lp2253
g5
(g6
g7
Ntp2254
Rp2255
(dp2256
S'y'
p2257
F-0.809016990777
sS'x'
p2258
F-0.309016991063
sS'z'
p2259
F0.499999999714
sbag37
ag5
(g6
g7
Ntp2260
Rp2261
(dp2262
S'y'
p2263
F-0.309016991063
sS'x'
p2264
F-0.499999999714
sS'z'
p2265
F0.809016990777
sbasS'rcUV'
p2266
F1.6
sS'rc'
p2267
g5
(g875
g7
Ntp2268
Rp2269
(dp2270
S'F'
p2271
F0.04
sS'del_T'
p2272
I4
sS'diffusion_rate_V'
p2273
F0.01
sS'del_X2'
p2274
F1.0
sS'diffusion_rate_U'
p2275
F0.04
sS'k'
p2276
F0.06
sS'reaction_rate'
p2277
F0.4
sbsS'dcU'
p2278
F0.16
sS'ph'
p2279
F-2.68422627449
sS'en'
p2280
(lp2281
I46
aI65
aI23
asS'U'
p2282
F0.00676672905684
sS'nextU'
p2283
F0.0
sS'dcV'
p2284
F0.04
sS'V'
p2285
F0.506759628654
sS'i'
p2286
I66
sbag2129
asS'nextV'
p2287
F0.0
sS'v'
p2288
(lp2289
g5
(g6
g7
Ntp2290
Rp2291
(dp2292
S'y'
p2293
F-0.809016990777
sS'x'
p2294
F0.309016991063
sS'z'
p2295
F0.499999999714
sbag37
ag5
(g6
g7
Ntp2296
Rp2297
(dp2298
S'y'
p2299
F-0.809016990777
sS'x'
p2300
F-0.309016991063
sS'z'
p2301
F0.499999999714
sbasS'rcUV'
p2302
F1.6
sS'rc'
p2303
g5
(g875
g7
Ntp2304
Rp2305
(dp2306
S'F'
p2307
F0.04
sS'del_T'
p2308
I4
sS'diffusion_rate_V'
p2309
F0.01
sS'del_X2'
p2310
F1.0
sS'diffusion_rate_U'
p2311
F0.04
sS'k'
p2312
F0.06
sS'reaction_rate'
p2313
F0.4
sbsS'dcU'
p2314
F0.16
sS'ph'
p2315
F3.14159274101
sS'en'
p2316
(lp2317
I45
aI66
aI43
asS'U'
p2318
F-0.00890860054642
sS'nextU'
p2319
F0.0
sS'dcV'
p2320
F0.04
sS'V'
p2321
F0.492102618329
sS'i'
p2322
I46
sbag2045
ag480
asS'nextV'
p2323
F0.0
sS'v'
p2324
(lp2325
g2291
ag2297
ag5
(g6
g7
Ntp2326
Rp2327
(dp2328
S'y'
p2329
F-0.999999999428
sS'x'
p2330
F0.0
sS'z'
p2331
F0.0
sbasS'rcUV'
p2332
F1.6
sS'rc'
p2333
g5
(g875
g7
Ntp2334
Rp2335
(dp2336
S'F'
p2337
F0.04
sS'del_T'
p2338
I4
sS'diffusion_rate_V'
p2339
F0.01
sS'del_X2'
p2340
F1.0
sS'diffusion_rate_U'
p2341
F0.04
sS'k'
p2342
F0.06
sS'reaction_rate'
p2343
F0.4
sbsS'dcU'
p2344
F0.16
sS'ph'
p2345
F3.14159274101
sS'en'
p2346
(lp2347
I46
aI47
aI44
asS'U'
p2348
F-0.00865024700761
sS'nextU'
p2349
F0.0
sS'dcV'
p2350
F0.04
sS'V'
p2351
F0.49139423389
sS'i'
p2352
I45
sba(iclasses
subFace
p2353
(dp2354
S'F'
p2355
F0.07125
sS'nv'
p2356
g5
(g6
g7
Ntp2357
Rp2358
(dp2359
S'y'
p2360
F-0.939124048637
sS'x'
p2361
F-0.294748097698
sS'z'
p2362
F-0.176549123005
sbsS'c'
p2363
I-16744448
sS'th'
p2364
F1.74827575684
sS'n'
p2365
(lp2366
g228
ag2045
ag452
asS'nextV'
p2367
F0.0
sS'v'
p2368
(lp2369
g5
(g6
g7
Ntp2370
Rp2371
(dp2372
S'y'
p2373
F-0.999999999428
sS'x'
p2374
F0.0
sS'z'
p2375
F0.0
sbag23
ag5
(g6
g7
Ntp2376
Rp2377
(dp2378
S'y'
p2379
F-0.809016990777
sS'x'
p2380
F-0.309016991063
sS'z'
p2381
F-0.499999999714
sbasS'rcUV'
p2382
F1.6
sS'rc'
p2383
g5
(g875
g7
Ntp2384
Rp2385
(dp2386
S'F'
p2387
F0.04
sS'del_T'
p2388
I4
sS'diffusion_rate_V'
p2389
F0.01
sS'del_X2'
p2390
F1.0
sS'diffusion_rate_U'
p2391
F0.04
sS'k'
p2392
F0.06
sS'reaction_rate'
p2393
F0.4
sbsS'dcU'
p2394
F0.16
sS'ph'
p2395
F-2.83747458458
sS'en'
p2396
(lp2397
I70
aI47
aI49
asS'U'
p2398
F0.00769605301321
sS'nextU'
p2399
F0.0
sS'dcV'
p2400
F0.04
sS'V'
p2401
F0.493847556412
sS'i'
p2402
I50
sbag2031
asS'nextV'
p2403
F0.0
sS'v'
p2404
(lp2405
g2297
ag23
ag2327
asS'rcUV'
p2406
F1.6
sS'rc'
p2407
g5
(g875
g7
Ntp2408
Rp2409
(dp2410
S'F'
p2411
F0.04
sS'del_T'
p2412
I4
sS'diffusion_rate_V'
p2413
F0.01
sS'del_X2'
p2414
F1.0
sS'diffusion_rate_U'
p2415
F0.04
sS'k'
p2416
F0.06
sS'reaction_rate'
p2417
F0.4
sbsS'dcU'
p2418
F0.16
sS'ph'
p2419
F-2.83747458458
sS'en'
p2420
(lp2421
I45
aI50
aI64
asS'U'
p2422
F0.00358675327152
sS'nextU'
p2423
F0.0
sS'dcV'
p2424
F0.04
sS'V'
p2425
F0.503422985785
sS'i'
p2426
I47
sbag214
ag2017
asS'nextV'
p2427
F0.0
sS'v'
p2428
(lp2429
g23
ag2255
ag5
(g6
g7
Ntp2430
Rp2431
(dp2432
S'y'
p2433
F-0.499999999714
sS'x'
p2434
F-0.809016990777
sS'z'
p2435
F0.309016991063
sbasS'rcUV'
p2436
F1.6
sS'rc'
p2437
g5
(g875
g7
Ntp2438
Rp2439
(dp2440
S'F'
p2441
F0.04
sS'del_T'
p2442
I4
sS'diffusion_rate_V'
p2443
F0.01
sS'del_X2'
p2444
F1.0
sS'diffusion_rate_U'
p2445
F0.04
sS'k'
p2446
F0.06
sS'reaction_rate'
p2447
F0.4
sbsS'dcU'
p2448
F0.16
sS'ph'
p2449
F-2.49101305008
sS'en'
p2450
(lp2451
I47
aI35
aI65
asS'U'
p2452
F-0.00629267562181
sS'nextU'
p2453
F0.0
sS'dcV'
p2454
F0.04
sS'V'
p2455
F0.50103829056
sS'i'
p2456
I64
sbag2087
asS'nextV'
p2457
F0.0
sS'v'
p2458
(lp2459
g2255
ag2261
ag2431
asS'rcUV'
p2460
F1.6
sS'rc'
p2461
g5
(g875
g7
Ntp2462
Rp2463
(dp2464
S'F'
p2465
F0.04
sS'del_T'
p2466
I4
sS'diffusion_rate_V'
p2467
F0.01
sS'del_X2'
p2468
F1.0
sS'diffusion_rate_U'
p2469
F0.04
sS'k'
p2470
F0.06
sS'reaction_rate'
p2471
F0.4
sbsS'dcU'
p2472
F0.16
sS'ph'
p2473
F-2.35619449615
sS'en'
p2474
(lp2475
I67
aI64
aI66
asS'U'
p2476
F-0.00260025728494
sS'nextU'
p2477
F0.0
sS'dcV'
p2478
F0.04
sS'V'
p2479
F0.504874659702
sS'i'
p2480
I65
sbasS'nextV'
p2481
F0.0
sS'v'
p2482
(lp2483
g2261
ag86
ag2431
asS'rcUV'
p2484
F1.6
sS'rc'
p2485
g5
(g875
g7
Ntp2486
Rp2487
(dp2488
S'F'
p2489
F0.04
sS'del_T'
p2490
I4
sS'diffusion_rate_V'
p2491
F0.01
sS'del_X2'
p2492
F1.0
sS'diffusion_rate_U'
p2493
F0.04
sS'k'
p2494
F0.06
sS'reaction_rate'
p2495
F0.4
sbsS'dcU'
p2496
F0.16
sS'ph'
p2497
F-1.92921841145
sS'en'
p2498
(lp2499
I22
aI32
aI65
asS'U'
p2500
F0.00363207235932
sS'nextU'
p2501
F0.0
sS'dcV'
p2502
F0.04
sS'V'
p2503
F0.506576860324
sS'i'
p2504
I67
sbag662
ag592
asS'nextV'
p2505
F0.0
sS'v'
p2506
(lp2507
g5
(g6
g7
Ntp2508
Rp2509
(dp2510
S'y'
p2511
F0.309016991063
sS'x'
p2512
F-0.499999999714
sS'z'
p2513
F0.809016990777
sbag86
ag2219
asS'rcUV'
p2514
F1.6
sS'rc'
p2515
g5
(g875
g7
Ntp2516
Rp2517
(dp2518
S'F'
p2519
F0.04
sS'del_T'
p2520
I4
sS'diffusion_rate_V'
p2521
F0.01
sS'del_X2'
p2522
F1.0
sS'diffusion_rate_U'
p2523
F0.04
sS'k'
p2524
F0.06
sS'reaction_rate'
p2525
F0.4
sbsS'dcU'
p2526
F0.16
sS'ph'
p2527
F-1.57079637051
sS'en'
p2528
(lp2529
I67
aI2
aI21
asS'U'
p2530
F0.0066534653306
sS'nextU'
p2531
F0.0
sS'dcV'
p2532
F0.04
sS'V'
p2533
F0.495301339775
sS'i'
p2534
I22
sbag2101
asS'nextV'
p2535
F0.0
sS'v'
p2536
(lp2537
g2509
ag2219
ag2225
asS'rcUV'
p2538
F1.6
sS'rc'
p2539
g5
(g875
g7
Ntp2540
Rp2541
(dp2542
S'F'
p2543
F0.04
sS'del_T'
p2544
I4
sS'diffusion_rate_V'
p2545
F0.01
sS'del_X2'
p2546
F1.0
sS'diffusion_rate_U'
p2547
F0.04
sS'k'
p2548
F0.06
sS'reaction_rate'
p2549
F0.4
sbsS'dcU'
p2550
F0.16
sS'ph'
p2551
F-1.5707962513
sS'en'
p2552
(lp2553
I20
aI22
aI23
asS'U'
p2554
F-0.00640954356641
sS'nextU'
p2555
F0.0
sS'dcV'
p2556
F0.04
sS'V'
p2557
F0.495634234045
sS'i'
p2558
I21
sbag690
asS'nextV'
p2559
F0.0
sS'v'
p2560
(lp2561
g44
ag2509
ag2225
asS'rcUV'
p2562
F1.6
sS'rc'
p2563
g5
(g875
g7
Ntp2564
Rp2565
(dp2566
S'F'
p2567
F0.04
sS'del_T'
p2568
I4
sS'diffusion_rate_V'
p2569
F0.01
sS'del_X2'
p2570
F1.0
sS'diffusion_rate_U'
p2571
F0.04
sS'k'
p2572
F0.06
sS'reaction_rate'
p2573
F0.4
sbsS'dcU'
p2574
F0.16
sS'ph'
p2575
F-0.539671421051
sS'en'
p2576
(lp2577
I63
aI21
aI3
asS'U'
p2578
F-0.00207195989788
sS'nextU'
p2579
F0.0
sS'dcV'
p2580
F0.04
sS'V'
p2581
F0.492056773044
sS'i'
p2582
I20
sbag550
ag1641
asS'nextV'
p2583
F0.0
sS'v'
p2584
(lp2585
g5
(g6
g7
Ntp2586
Rp2587
(dp2588
S'y'
p2589
F0.309016991063
sS'x'
p2590
F0.499999999714
sS'z'
p2591
F0.809016990777
sbag44
ag2189
asS'rcUV'
p2592
F1.6
sS'rc'
p2593
g5
(g875
g7
Ntp2594
Rp2595
(dp2596
S'F'
p2597
F0.04
sS'del_T'
p2598
I4
sS'diffusion_rate_V'
p2599
F0.01
sS'del_X2'
p2600
F1.0
sS'diffusion_rate_U'
p2601
F0.04
sS'k'
p2602
F0.06
sS'reaction_rate'
p2603
F0.4
sbsS'dcU'
p2604
F0.16
sS'ph'
p2605
F0.539671421051
sS'en'
p2606
(lp2607
I20
aI61
aI26
asS'U'
p2608
F0.00853952765465
sS'nextU'
p2609
F0.0
sS'dcV'
p2610
F0.04
sS'V'
p2611
F0.509257493541
sS'i'
p2612
I63
sbag2115
asS'nextV'
p2613
F0.0
sS'v'
p2614
(lp2615
g2183
ag2587
ag2189
asS'rcUV'
p2616
F1.6
sS'rc'
p2617
g5
(g875
g7
Ntp2618
Rp2619
(dp2620
S'F'
p2621
F0.04
sS'del_T'
p2622
I4
sS'diffusion_rate_V'
p2623
F0.01
sS'del_X2'
p2624
F1.0
sS'diffusion_rate_U'
p2625
F0.04
sS'k'
p2626
F0.06
sS'reaction_rate'
p2627
F0.4
sbsS'dcU'
p2628
F0.16
sS'ph'
p2629
F1.57079637051
sS'en'
p2630
(lp2631
I62
aI63
aI60
asS'U'
p2632
F-0.00790503341705
sS'nextU'
p2633
F0.0
sS'dcV'
p2634
F0.04
sS'V'
p2635
F0.506163300946
sS'i'
p2636
I61
sbag774
ag522
asS'nextV'
p2637
F0.0
sS'v'
p2638
(lp2639
g2183
ag72
ag2587
asS'rcUV'
p2640
F1.6
sS'rc'
p2641
g5
(g875
g7
Ntp2642
Rp2643
(dp2644
S'F'
p2645
F0.04
sS'del_T'
p2646
I4
sS'diffusion_rate_V'
p2647
F0.01
sS'del_X2'
p2648
F1.0
sS'diffusion_rate_U'
p2649
F0.04
sS'k'
p2650
F0.06
sS'reaction_rate'
p2651
F0.4
sbsS'dcU'
p2652
F0.16
sS'ph'
p2653
F1.57079637051
sS'en'
p2654
(lp2655
I61
aI27
aI42
asS'U'
p2656
F-0.00806044600904
sS'nextU'
p2657
F0.0
sS'dcV'
p2658
F0.04
sS'V'
p2659
F0.508319878951
sS'i'
p2660
I62
sbag508
ag802
asS'nextV'
p2661
F0.0
sS'v'
p2662
(lp2663
g5
(g6
g7
Ntp2664
Rp2665
(dp2666
S'y'
p2667
F-0.499999969912
sS'x'
p2668
F0.809016972358
sS'z'
p2669
F0.309016991063
sbag72
ag2147
asS'rcUV'
p2670
F1.6
sS'rc'
p2671
g5
(g875
g7
Ntp2672
Rp2673
(dp2674
S'F'
p2675
F0.04
sS'del_T'
p2676
I4
sS'diffusion_rate_V'
p2677
F0.01
sS'del_X2'
p2678
F1.0
sS'diffusion_rate_U'
p2679
F0.04
sS'k'
p2680
F0.06
sS'reaction_rate'
p2681
F0.4
sbsS'dcU'
p2682
F0.16
sS'ph'
p2683
F1.92921841145
sS'en'
p2684
(lp2685
I62
aI41
aI59
asS'U'
p2686
F0.0010048141703
sS'nextU'
p2687
F0.0
sS'dcV'
p2688
F0.04
sS'V'
p2689
F0.493295310996
sS'i'
p2690
I42
sbag494
ag2129
asS'nextV'
p2691
F0.0
sS'v'
p2692
(lp2693
g2665
ag2147
ag2153
asS'rcUV'
p2694
F1.6
sS'rc'
p2695
g5
(g875
g7
Ntp2696
Rp2697
(dp2698
S'F'
p2699
F0.04
sS'del_T'
p2700
I4
sS'diffusion_rate_V'
p2701
F0.01
sS'del_X2'
p2702
F1.0
sS'diffusion_rate_U'
p2703
F0.04
sS'k'
p2704
F0.06
sS'reaction_rate'
p2705
F0.4
sbsS'dcU'
p2706
F0.16
sS'ph'
p2707
F2.35619449615
sS'en'
p2708
(lp2709
I42
aI40
aI43
asS'U'
p2710
F-0.00269369222224
sS'nextU'
p2711
F0.0
sS'dcV'
p2712
F0.04
sS'V'
p2713
F0.495316319633
sS'i'
p2714
I41
sbag830
ag480
asS'nextV'
p2715
F0.0
sS'v'
p2716
(lp2717
g30
ag2665
ag2153
asS'rcUV'
p2718
F1.6
sS'rc'
p2719
g5
(g875
g7
Ntp2720
Rp2721
(dp2722
S'F'
p2723
F0.04
sS'del_T'
p2724
I4
sS'diffusion_rate_V'
p2725
F0.01
sS'del_X2'
p2726
F1.0
sS'diffusion_rate_U'
p2727
F0.04
sS'k'
p2728
F0.06
sS'reaction_rate'
p2729
F0.4
sbsS'dcU'
p2730
F0.16
sS'ph'
p2731
F2.49101305008
sS'en'
p2732
(lp2733
I41
aI56
aI44
asS'U'
p2734
F0.000364056788385
sS'nextU'
p2735
F0.0
sS'dcV'
p2736
F0.04
sS'V'
p2737
F0.49389329832
sS'i'
p2738
I40
sbag2059
asS'nextV'
p2739
F0.0
sS'v'
p2740
(lp2741
g30
ag2291
ag2327
asS'rcUV'
p2742
F1.6
sS'rc'
p2743
g5
(g875
g7
Ntp2744
Rp2745
(dp2746
S'F'
p2747
F0.04
sS'del_T'
p2748
I4
sS'diffusion_rate_V'
p2749
F0.01
sS'del_X2'
p2750
F1.0
sS'diffusion_rate_U'
p2751
F0.04
sS'k'
p2752
F0.06
sS'reaction_rate'
p2753
F0.4
sbsS'dcU'
p2754
F0.16
sS'ph'
p2755
F2.83747458458
sS'en'
p2756
(lp2757
I48
aI40
aI45
asS'U'
p2758
F0.00756689719856
sS'nextU'
p2759
F0.0
sS'dcV'
p2760
F0.04
sS'V'
p2761
F0.505529429764
sS'i'
p2762
I44
sbag844
asS'nextV'
p2763
F0.0
sS'v'
p2764
(lp2765
g30
ag2371
ag5
(g6
g7
Ntp2766
Rp2767
(dp2768
S'y'
p2769
F-0.809016990777
sS'x'
p2770
F0.309016991063
sS'z'
p2771
F-0.499999999714
sbasS'rcUV'
p2772
F1.6
sS'rc'
p2773
g5
(g875
g7
Ntp2774
Rp2775
(dp2776
S'F'
p2777
F0.04
sS'del_T'
p2778
I4
sS'diffusion_rate_V'
p2779
F0.01
sS'del_X2'
p2780
F1.0
sS'diffusion_rate_U'
p2781
F0.04
sS'k'
p2782
F0.06
sS'reaction_rate'
p2783
F0.4
sbsS'dcU'
p2784
F0.16
sS'ph'
p2785
F2.83747458458
sS'en'
p2786
(lp2787
I49
aI44
aI52
asS'U'
p2788
F-0.00802480708808
sS'nextU'
p2789
F0.0
sS'dcV'
p2790
F0.04
sS'V'
p2791
F0.502892764285
sS'i'
p2792
I48
sbag2353
ag438
asS'nextV'
p2793
F0.0
sS'v'
p2794
(lp2795
g2371
ag2377
ag2767
asS'rcUV'
p2796
F1.6
sS'rc'
p2797
g5
(g875
g7
Ntp2798
Rp2799
(dp2800
S'F'
p2801
F0.04
sS'del_T'
p2802
I4
sS'diffusion_rate_V'
p2803
F0.01
sS'del_X2'
p2804
F1.0
sS'diffusion_rate_U'
p2805
F0.04
sS'k'
p2806
F0.06
sS'reaction_rate'
p2807
F0.4
sbsS'dcU'
p2808
F0.16
sS'ph'
p2809
F3.14159274101
sS'en'
p2810
(lp2811
I48
aI50
aI51
asS'U'
p2812
F-0.0095641752705
sS'nextU'
p2813
F0.0
sS'dcV'
p2814
F0.04
sS'V'
p2815
F0.501705497503
sS'i'
p2816
I49
sbag256
ag424
asS'nextV'
p2817
F0.0
sS'v'
p2818
(lp2819
g2377
ag51
ag2767
asS'rcUV'
p2820
F1.6
sS'rc'
p2821
g5
(g875
g7
Ntp2822
Rp2823
(dp2824
S'F'
p2825
F0.04
sS'del_T'
p2826
I4
sS'diffusion_rate_V'
p2827
F0.01
sS'del_X2'
p2828
F1.0
sS'diffusion_rate_U'
p2829
F0.04
sS'k'
p2830
F0.06
sS'reaction_rate'
p2831
F0.4
sbsS'dcU'
p2832
F0.16
sS'ph'
p2833
F3.14159274101
sS'en'
p2834
(lp2835
I49
aI68
aI54
asS'U'
p2836
F0.00372767820954
sS'nextU'
p2837
F0.0
sS'dcV'
p2838
F0.04
sS'V'
p2839
F0.495316411369
sS'i'
p2840
I51
sbasS'nextV'
p2841
F0.0
sS'v'
p2842
(lp2843
g862
ag51
ag5
(g6
g7
Ntp2844
Rp2845
(dp2846
S'y'
p2847
F-0.309016991063
sS'x'
p2848
F0.499999999714
sS'z'
p2849
F-0.809016990777
sbasS'rcUV'
p2850
F1.6
sS'rc'
p2851
g5
(g875
g7
Ntp2852
Rp2853
(dp2854
S'F'
p2855
F0.04
sS'del_T'
p2856
I4
sS'diffusion_rate_V'
p2857
F0.01
sS'del_X2'
p2858
F1.0
sS'diffusion_rate_U'
p2859
F0.04
sS'k'
p2860
F0.06
sS'reaction_rate'
p2861
F0.4
sbsS'dcU'
p2862
F0.16
sS'ph'
p2863
F2.68422627449
sS'en'
p2864
(lp2865
I74
aI53
aI51
asS'U'
p2866
F-0.00449656695127
sS'nextU'
p2867
F0.0
sS'dcV'
p2868
F0.04
sS'V'
p2869
F0.50449510105
sS'i'
p2870
I54
sbag844
asS'nextV'
p2871
F0.0
sS'v'
p2872
(lp2873
g862
ag2845
ag868
asS'rcUV'
p2874
F1.6
sS'rc'
p2875
g5
(g875
g7
Ntp2876
Rp2877
(dp2878
S'F'
p2879
F0.04
sS'del_T'
p2880
I4
sS'diffusion_rate_V'
p2881
F0.01
sS'del_X2'
p2882
F1.0
sS'diffusion_rate_U'
p2883
F0.04
sS'k'
p2884
F0.06
sS'reaction_rate'
p2885
F0.4
sbsS'dcU'
p2886
F0.16
sS'ph'
p2887
F2.35619449615
sS'en'
p2888
(lp2889
I55
aI54
aI52
asS'U'
p2890
F0.00828506052494
sS'nextU'
p2891
F0.0
sS'dcV'
p2892
F0.04
sS'V'
p2893
F0.501305151731
sS'i'
p2894
I53
sba(iclasses
subFace
p2895
(dp2896
S'F'
p2897
F0.085
sS'nv'
p2898
g5
(g6
g7
Ntp2899
Rp2900
(dp2901
S'y'
p2902
F0.0
sS'x'
p2903
F0.653461568038
sS'z'
p2904
F-0.756959701302
sbsS'c'
p2905
I-8388608
sS'th'
p2906
F2.42944407463
sS'n'
p2907
(lp2908
g396
ag354
ag298
asS'nextV'
p2909
F0.0
sS'v'
p2910
(lp2911
g65
ag5
(g6
g7
Ntp2912
Rp2913
(dp2914
S'y'
p2915
F-0.309016991063
sS'x'
p2916
F0.499999999714
sS'z'
p2917
F-0.809016990777
sbag5
(g6
g7
Ntp2918
Rp2919
(dp2920
S'y'
p2921
F0.309016991063
sS'x'
p2922
F0.499999999714
sS'z'
p2923
F-0.809016990777
sbasS'rcUV'
p2924
F1.6
sS'rc'
p2925
g5
(g875
g7
Ntp2926
Rp2927
(dp2928
S'F'
p2929
F0.04
sS'del_T'
p2930
I4
sS'diffusion_rate_V'
p2931
F0.01
sS'del_X2'
p2932
F1.0
sS'diffusion_rate_U'
p2933
F0.04
sS'k'
p2934
F0.06
sS'reaction_rate'
p2935
F0.4
sbsS'dcU'
p2936
F0.16
sS'ph'
p2937
F1.57079637051
sS'en'
p2938
(lp2939
I55
aI31
aI73
asS'U'
p2940
F0.00599584169686
sS'nextU'
p2941
F0.0
sS'dcV'
p2942
F0.04
sS'V'
p2943
F0.499100883491
sS'i'
p2944
I72
sbag382
asS'nextV'
p2945
F0.0
sS'v'
p2946
(lp2947
g2845
ag65
ag868
asS'rcUV'
p2948
F1.6
sS'rc'
p2949
g5
(g875
g7
Ntp2950
Rp2951
(dp2952
S'F'
p2953
F0.04
sS'del_T'
p2954
I4
sS'diffusion_rate_V'
p2955
F0.01
sS'del_X2'
p2956
F1.0
sS'diffusion_rate_U'
p2957
F0.04
sS'k'
p2958
F0.06
sS'reaction_rate'
p2959
F0.4
sbsS'dcU'
p2960
F0.16
sS'ph'
p2961
F1.92921841145
sS'en'
p2962
(lp2963
I53
aI72
aI58
asS'U'
p2964
F0.000143046490848
sS'nextU'
p2965
F0.0
sS'dcV'
p2966
F0.04
sS'V'
p2967
F0.500070108101
sS'i'
p2968
I55
sbag816
ag368
asS'nextV'
p2969
F0.0
sS'v'
p2970
(lp2971
g899
ag65
ag935
asS'rcUV'
p2972
F1.6
sS'rc'
p2973
g5
(g875
g7
Ntp2974
Rp2975
(dp2976
S'F'
p2977
F0.04
sS'del_T'
p2978
I4
sS'diffusion_rate_V'
p2979
F0.01
sS'del_X2'
p2980
F1.0
sS'diffusion_rate_U'
p2981
F0.04
sS'k'
p2982
F0.06
sS'reaction_rate'
p2983
F0.4
sbsS'dcU'
p2984
F0.16
sS'ph'
p2985
F1.75662088394
sS'en'
p2986
(lp2987
I55
aI57
aI78
asS'U'
p2988
F0.00956318899989
sS'nextU'
p2989
F0.0
sS'dcV'
p2990
F0.04
sS'V'
p2991
F0.493218123913
sS'i'
p2992
I58
sbag985
asS'nextV'
p2993
F0.0
sS'v'
p2994
(lp2995
g1555
ag65
ag1519
asS'rcUV'
p2996
F1.6
sS'rc'
p2997
g5
(g875
g7
Ntp2998
Rp2999
(dp3000
S'F'
p3001
F0.04
sS'del_T'
p3002
I4
sS'diffusion_rate_V'
p3003
F0.01
sS'del_X2'
p3004
F1.0
sS'diffusion_rate_U'
p3005
F0.04
sS'k'
p3006
F0.06
sS'reaction_rate'
p3007
F0.4
sbsS'dcU'
p3008
F0.16
sS'ph'
p3009
F1.38497173786
sS'en'
p3010
(lp3011
I31
aI58
aI77
asS'U'
p3012
F-0.00948374625295
sS'nextU'
p3013
F0.0
sS'dcV'
p3014
F0.04
sS'V'
p3015
F0.50673638843
sS'i'
p3016
I78
sbag2895
ag340
asS'nextV'
p3017
F0.0
sS'v'
p3018
(lp3019
g1489
ag65
ag5
(g6
g7
Ntp3020
Rp3021
(dp3022
S'y'
p3023
F0.309016991063
sS'x'
p3024
F0.499999969912
sS'z'
p3025
F-0.809016972358
sbasS'rcUV'
p3026
F1.6
sS'rc'
p3027
g5
(g875
g7
Ntp3028
Rp3029
(dp3030
S'F'
p3031
F0.04
sS'del_T'
p3032
I4
sS'diffusion_rate_V'
p3033
F0.01
sS'del_X2'
p3034
F1.0
sS'diffusion_rate_U'
p3035
F0.04
sS'k'
p3036
F0.06
sS'reaction_rate'
p3037
F0.4
sbsS'dcU'
p3038
F0.16
sS'ph'
p3039
F1.21237421036
sS'en'
p3040
(lp3041
I78
aI72
aI29
asS'U'
p3042
F0.00393386278301
sS'nextU'
p3043
F0.0
sS'dcV'
p3044
F0.04
sS'V'
p3045
F0.509882057086
sS'i'
p3046
I31
sbag1013
asS'nextV'
p3047
F0.0
sS'v'
p3048
(lp3049
g1483
ag1489
ag3021
asS'rcUV'
p3050
F1.6
sS'rc'
p3051
g5
(g875
g7
Ntp3052
Rp3053
(dp3054
S'F'
p3055
F0.04
sS'del_T'
p3056
I4
sS'diffusion_rate_V'
p3057
F0.01
sS'del_X2'
p3058
F1.0
sS'diffusion_rate_U'
p3059
F0.04
sS'k'
p3060
F0.06
sS'reaction_rate'
p3061
F0.4
sbsS'dcU'
p3062
F0.16
sS'ph'
p3063
F0.785398125648
sS'en'
p3064
(lp3065
I28
aI31
aI30
asS'U'
p3066
F0.0065269973129
sS'nextU'
p3067
F0.0
sS'dcV'
p3068
F0.04
sS'V'
p3069
F0.496436625719
sS'i'
p3070
I29
sbag1155
asS'nextV'
p3071
F0.0
sS'v'
p3072
(lp3073
g58
ag1483
ag3021
asS'rcUV'
p3074
F1.6
sS'rc'
p3075
g5
(g875
g7
Ntp3076
Rp3077
(dp3078
S'F'
p3079
F0.04
sS'del_T'
p3080
I4
sS'diffusion_rate_V'
p3081
F0.01
sS'del_X2'
p3082
F1.0
sS'diffusion_rate_U'
p3083
F0.04
sS'k'
p3084
F0.06
sS'reaction_rate'
p3085
F0.4
sbsS'dcU'
p3086
F0.16
sS'ph'
p3087
F0.457366496325
sS'en'
p3088
(lp3089
I75
aI29
aI11
asS'U'
p3090
F-0.00187754631042
sS'nextU'
p3091
F0.0
sS'dcV'
p3092
F0.04
sS'V'
p3093
F0.501935210079
sS'i'
p3094
I28
sbag298
ag1183
asS'nextV'
p3095
F0.0
sS'v'
p3096
(lp3097
g5
(g6
g7
Ntp3098
Rp3099
(dp3100
S'y'
p3101
F0.0
sS'x'
p3102
F0.0
sS'z'
p3103
F-0.999999999428
sbag58
ag2919
asS'rcUV'
p3104
F1.6
sS'rc'
p3105
g5
(g875
g7
Ntp3106
Rp3107
(dp3108
S'F'
p3109
F0.04
sS'del_T'
p3110
I4
sS'diffusion_rate_V'
p3111
F0.01
sS'del_X2'
p3112
F1.0
sS'diffusion_rate_U'
p3113
F0.04
sS'k'
p3114
F0.06
sS'reaction_rate'
p3115
F0.4
sbsS'dcU'
p3116
F0.16
sS'ph'
p3117
F0.539671421051
sS'en'
p3118
(lp3119
I28
aI73
aI38
asS'U'
p3120
F-0.0011044871062
sS'nextU'
p3121
F0.0
sS'dcV'
p3122
F0.04
sS'V'
p3123
F0.495853889268
sS'i'
p3124
I75
sbag284
ag2895
asS'nextV'
p3125
F0.0
sS'v'
p3126
(lp3127
g2913
ag3099
ag2919
asS'rcUV'
p3128
F1.6
sS'rc'
p3129
g5
(g875
g7
Ntp3130
Rp3131
(dp3132
S'F'
p3133
F0.04
sS'del_T'
p3134
I4
sS'diffusion_rate_V'
p3135
F0.01
sS'del_X2'
p3136
F1.0
sS'diffusion_rate_U'
p3137
F0.04
sS'k'
p3138
F0.06
sS'reaction_rate'
p3139
F0.4
sbsS'dcU'
p3140
F0.16
sS'ph'
p3141
F1.57079637051
sS'en'
p3142
(lp3143
I75
aI74
aI72
asS'U'
p3144
F0.00851521454751
sS'nextU'
p3145
F0.0
sS'dcV'
p3146
F0.04
sS'V'
p3147
F0.505760544911
sS'i'
p3148
I73
sbag270
ag424
asS'nextV'
p3149
F0.0
sS'v'
p3150
(lp3151
g2913
ag51
ag3099
asS'rcUV'
p3152
F1.6
sS'rc'
p3153
g5
(g875
g7
Ntp3154
Rp3155
(dp3156
S'F'
p3157
F0.04
sS'del_T'
p3158
I4
sS'diffusion_rate_V'
p3159
F0.01
sS'del_X2'
p3160
F1.0
sS'diffusion_rate_U'
p3161
F0.04
sS'k'
p3162
F0.06
sS'reaction_rate'
p3163
F0.4
sbsS'dcU'
p3164
F0.16
sS'ph'
p3165
F2.60192131996
sS'en'
p3166
(lp3167
I73
aI39
aI54
asS'U'
p3168
F-0.00861931592226
sS'nextU'
p3169
F0.0
sS'dcV'
p3170
F0.04
sS'V'
p3171
F0.493361961097
sS'i'
p3172
I74
sbag256
ag1197
asS'nextV'
p3173
F0.0
sS'v'
p3174
(lp3175
g1315
ag51
ag1285
asS'rcUV'
p3176
F1.6
sS'rc'
p3177
g5
(g875
g7
Ntp3178
Rp3179
(dp3180
S'F'
p3181
F0.04
sS'del_T'
p3182
I4
sS'diffusion_rate_V'
p3183
F0.01
sS'del_X2'
p3184
F1.0
sS'diffusion_rate_U'
p3185
F0.04
sS'k'
p3186
F0.06
sS'reaction_rate'
p3187
F0.4
sbsS'dcU'
p3188
F0.16
sS'ph'
p3189
F-2.60192108154
sS'en'
p3190
(lp3191
I74
aI68
aI37
asS'U'
p3192
F0.0014464976266
sS'nextU'
p3193
F0.0
sS'dcV'
p3194
F0.04
sS'V'
p3195
F0.507456839085
sS'i'
p3196
I39
sbag438
asS'nextV'
p3197
F0.0
sS'v'
p3198
(lp3199
g51
ag5
(g6
g7
Ntp3200
Rp3201
(dp3202
S'y'
p3203
F-0.809016990777
sS'x'
p3204
F-0.309016991063
sS'z'
p3205
F-0.499999999714
sbag1249
asS'rcUV'
p3206
F1.6
sS'rc'
p3207
g5
(g875
g7
Ntp3208
Rp3209
(dp3210
S'F'
p3211
F0.04
sS'del_T'
p3212
I4
sS'diffusion_rate_V'
p3213
F0.01
sS'del_X2'
p3214
F1.0
sS'diffusion_rate_U'
p3215
F0.04
sS'k'
p3216
F0.06
sS'reaction_rate'
p3217
F0.4
sbsS'dcU'
p3218
F0.16
sS'ph'
p3219
F-2.68422627449
sS'en'
p3220
(lp3221
I69
aI39
aI51
asS'U'
p3222
F0.00361168943346
sS'nextU'
p3223
F0.0
sS'dcV'
p3224
F0.04
sS'V'
p3225
F0.506655886769
sS'i'
p3226
I68
sbag1225
asS'nextV'
p3227
F0.0
sS'v'
p3228
(lp3229
g3201
ag1243
ag1249
asS'rcUV'
p3230
F1.6
sS'rc'
p3231
g5
(g875
g7
Ntp3232
Rp3233
(dp3234
S'F'
p3235
F0.04
sS'del_T'
p3236
I4
sS'diffusion_rate_V'
p3237
F0.01
sS'del_X2'
p3238
F1.0
sS'diffusion_rate_U'
p3239
F0.04
sS'k'
p3240
F0.06
sS'reaction_rate'
p3241
F0.4
sbsS'dcU'
p3242
F0.16
sS'ph'
p3243
F-2.35619449615
sS'en'
p3244
(lp3245
I70
aI68
aI71
asS'U'
p3246
F0.00317472312599
sS'nextU'
p3247
F0.0
sS'dcV'
p3248
F0.04
sS'V'
p3249
F0.490337157622
sS'i'
p3250
I69
sbag214
ag2353
asS'nextV'
p3251
F0.0
sS'v'
p3252
(lp3253
g3201
ag23
ag1243
asS'rcUV'
p3254
F1.6
sS'rc'
p3255
g5
(g875
g7
Ntp3256
Rp3257
(dp3258
S'F'
p3259
F0.04
sS'del_T'
p3260
I4
sS'diffusion_rate_V'
p3261
F0.01
sS'del_X2'
p3262
F1.0
sS'diffusion_rate_U'
p3263
F0.04
sS'k'
p3264
F0.06
sS'reaction_rate'
p3265
F0.4
sbsS'dcU'
p3266
F0.16
sS'ph'
p3267
F-2.49101305008
sS'en'
p3268
(lp3269
I69
aI35
aI50
asS'U'
p3270
F-0.00215361546725
sS'nextU'
p3271
F0.0
sS'dcV'
p3272
F0.04
sS'V'
p3273
F0.496581371874
sS'i'
p3274
I70
sbag200
ag2031
asS'nextV'
p3275
F0.0
sS'v'
p3276
(lp3277
g5
(g6
g7
Ntp3278
Rp3279
(dp3280
S'y'
p3281
F-0.499999969912
sS'x'
p3282
F-0.809016972358
sS'z'
p3283
F-0.309016991063
sbag23
ag1991
asS'rcUV'
p3284
F1.6
sS'rc'
p3285
g5
(g875
g7
Ntp3286
Rp3287
(dp3288
S'F'
p3289
F0.04
sS'del_T'
p3290
I4
sS'diffusion_rate_V'
p3291
F0.01
sS'del_X2'
p3292
F1.0
sS'diffusion_rate_U'
p3293
F0.04
sS'k'
p3294
F0.06
sS'reaction_rate'
p3295
F0.4
sbsS'dcU'
p3296
F0.16
sS'ph'
p3297
F-2.28294467926
sS'en'
p3298
(lp3299
I70
aI33
aI64
asS'U'
p3300
F0.00297293439507
sS'nextU'
p3301
F0.0
sS'dcV'
p3302
F0.04
sS'V'
p3303
F0.498672123998
sS'i'
p3304
I35
sbag634
asS'nextV'
p3305
F0.0
sS'v'
p3306
(lp3307
g1985
ag3279
ag1991
asS'rcUV'
p3308
F1.6
sS'rc'
p3309
g5
(g875
g7
Ntp3310
Rp3311
(dp3312
S'F'
p3313
F0.04
sS'del_T'
p3314
I4
sS'diffusion_rate_V'
p3315
F0.01
sS'del_X2'
p3316
F1.0
sS'diffusion_rate_U'
p3317
F0.04
sS'k'
p3318
F0.06
sS'reaction_rate'
p3319
F0.4
sbsS'dcU'
p3320
F0.16
sS'ph'
p3321
F-1.93566012383
sS'en'
p3322
(lp3323
I34
aI35
aI32
asS'U'
p3324
F0.00355883594602
sS'nextU'
p3325
F0.0
sS'dcV'
p3326
F0.04
sS'V'
p3327
F0.503902724944
sS'i'
p3328
I33
sbag1225
asS'nextV'
p3329
F0.0
sS'v'
p3330
(lp3331
g1985
ag79
ag3279
asS'rcUV'
p3332
F1.6
sS'rc'
p3333
g5
(g875
g7
Ntp3334
Rp3335
(dp3336
S'F'
p3337
F0.04
sS'del_T'
p3338
I4
sS'diffusion_rate_V'
p3339
F0.01
sS'del_X2'
p3340
F1.0
sS'diffusion_rate_U'
p3341
F0.04
sS'k'
p3342
F0.06
sS'reaction_rate'
p3343
F0.4
sbsS'dcU'
p3344
F0.16
sS'ph'
p3345
F-1.75662088394
sS'en'
p3346
(lp3347
I18
aI33
aI71
asS'U'
p3348
F-0.000812465324998
sS'nextU'
p3349
F0.0
sS'dcV'
p3350
F0.04
sS'V'
p3351
F0.507058572024
sS'i'
p3352
I34
sbag158
ag1901
asS'nextV'
p3353
F0.0
sS'v'
p3354
(lp3355
g1919
ag79
ag1925
asS'rcUV'
p3356
F1.6
sS'rc'
p3357
g5
(g875
g7
Ntp3358
Rp3359
(dp3360
S'F'
p3361
F0.04
sS'del_T'
p3362
I4
sS'diffusion_rate_V'
p3363
F0.01
sS'del_X2'
p3364
F1.0
sS'diffusion_rate_U'
p3365
F0.04
sS'k'
p3366
F0.06
sS'reaction_rate'
p3367
F0.4
sbsS'dcU'
p3368
F0.16
sS'ph'
p3369
F-1.38497173786
sS'en'
p3370
(lp3371
I34
aI15
aI17
asS'U'
p3372
F1.00574370101
sS'nextU'
p3373
F0.0
sS'dcV'
p3374
F0.04
sS'V'
p3375
F0.000411837361753
sS'i'
p3376
I18
sbag144
ag1211
asS'nextV'
p3377
F0.0
sS'v'
p3378
(lp3379
g1375
ag79
ag5
(g6
g7
Ntp3380
Rp3381
(dp3382
S'y'
p3383
F0.499999999714
sS'x'
p3384
F-0.809016960975
sS'z'
p3385
F-0.309016972644
sbasS'rcUV'
p3386
F1.6
sS'rc'
p3387
g5
(g875
g7
Ntp3388
Rp3389
(dp3390
S'F'
p3391
F0.04
sS'del_T'
p3392
I4
sS'diffusion_rate_V'
p3393
F0.01
sS'del_X2'
p3394
F1.0
sS'diffusion_rate_U'
p3395
F0.04
sS'k'
p3396
F0.06
sS'reaction_rate'
p3397
F0.4
sbsS'dcU'
p3398
F0.16
sS'ph'
p3399
F-1.21237421036
sS'en'
p3400
(lp3401
I18
aI13
aI36
asS'U'
p3402
F0.991115665995
sS'nextU'
p3403
F0.0
sS'dcV'
p3404
F0.04
sS'V'
p3405
F0.00922124087811
sS'i'
p3406
I15
sbag1169
asS'nextV'
p3407
F0.0
sS'v'
p3408
(lp3409
g1369
ag1375
ag3381
asS'rcUV'
p3410
F1.6
sS'rc'
p3411
g5
(g875
g7
Ntp3412
Rp3413
(dp3414
S'F'
p3415
F0.04
sS'del_T'
p3416
I4
sS'diffusion_rate_V'
p3417
F0.01
sS'del_X2'
p3418
F1.0
sS'diffusion_rate_U'
p3419
F0.04
sS'k'
p3420
F0.06
sS'reaction_rate'
p3421
F0.4
sbsS'dcU'
p3422
F0.16
sS'ph'
p3423
F-0.785398125648
sS'en'
p3424
(lp3425
I12
aI15
aI14
asS'U'
p3426
F1.00978930108
sS'nextU'
p3427
F0.0
sS'dcV'
p3428
F0.04
sS'V'
p3429
F-0.00841313134879
sS'i'
p3430
I13
sbag1055
ag116
asS'nextV'
p3431
F0.0
sS'v'
p3432
(lp3433
g9
ag1369
ag3381
asS'rcUV'
p3434
F1.6
sS'rc'
p3435
g5
(g875
g7
Ntp3436
Rp3437
(dp3438
S'F'
p3439
F0.04
sS'del_T'
p3440
I4
sS'diffusion_rate_V'
p3441
F0.01
sS'del_X2'
p3442
F1.0
sS'diffusion_rate_U'
p3443
F0.04
sS'k'
p3444
F0.06
sS'reaction_rate'
p3445
F0.4
sbsS'dcU'
p3446
F0.16
sS'ph'
p3447
F-0.650579631329
sS'en'
p3448
(lp3449
I13
aI8
aI16
asS'U'
p3450
F1.00392439961
sS'nextU'
p3451
F0.0
sS'dcV'
p3452
F0.04
sS'V'
p3453
F-0.00596163840964
sS'i'
p3454
I12
sbag1901
asS'nextV'
p3455
F0.0
sS'v'
p3456
(lp3457
g9
ag1919
ag1931
asS'rcUV'
p3458
F1.6
sS'rc'
p3459
g5
(g875
g7
Ntp3460
Rp3461
(dp3462
S'F'
p3463
F0.04
sS'del_T'
p3464
I4
sS'diffusion_rate_V'
p3465
F0.01
sS'del_X2'
p3466
F1.0
sS'diffusion_rate_U'
p3467
F0.04
sS'k'
p3468
F0.06
sS'reaction_rate'
p3469
F0.4
sbsS'dcU'
p3470
F0.16
sS'ph'
p3471
F-0.858647882938
sS'en'
p3472
(lp3473
I0
aI12
aI17
asS'U'
p3474
F0.999971300364
sS'nextU'
p3475
F0.0
sS'dcV'
p3476
F0.04
sS'V'
p3477
F-0.00220817187801
sS'i'
p3478
I16
sbag676
ag1069
asS'nextV'
p3479
F0.0
sS'v'
p3480
(lp3481
g9
ag1851
ag1821
asS'rcUV'
p3482
F1.6
sS'rc'
p3483
g5
(g875
g7
Ntp3484
Rp3485
(dp3486
S'F'
p3487
F0.04
sS'del_T'
p3488
I4
sS'diffusion_rate_V'
p3489
F0.01
sS'del_X2'
p3490
F1.0
sS'diffusion_rate_U'
p3491
F0.04
sS'k'
p3492
F0.06
sS'reaction_rate'
p3493
F0.4
sbsS'dcU'
p3494
F0.16
sS'ph'
p3495
F-0.650579631329
sS'en'
p3496
(lp3497
I16
aI1
aI4
asS'U'
p3498
F1.00657165609
sS'nextU'
p3499
F0.0
sS'dcV'
p3500
F0.04
sS'V'
p3501
F0.00889893993735
sS'i'
p3502
I0
sbag676
ag662
ag690
asS'v'
p3503
(lp3504
g9
ag86
ag44
ag1851
ag1815
ag1821
asS'vi'
p3505
(lp3506
I0
aI11
aI5
asS'i'
p3507
I0
sba(iclasses
Quadface
p3508
(dp3509
S'f'
p3510
(lp3511
g1069
ag718
ag704
ag732
asS'v'
p3512
(lp3513
g9
ag44
ag16
ag1087
ag1737
ag1093
asS'vi'
p3514
(lp3515
I0
aI5
aI1
asS'i'
p3516
I1
sba(iclasses
Quadface
p3517
(dp3518
S'f'
p3519
(lp3520
g1055
ag1041
ag1027
ag1155
asS'v'
p3521
(lp3522
g9
ag16
ag58
ag1123
ag1405
ag1129
asS'vi'
p3523
(lp3524
I0
aI1
aI7
asS'i'
p3525
I2
sba(iclasses
Quadface
p3526
(dp3527
S'f'
p3528
(lp3529
g130
ag144
ag1169
ag158
asS'v'
p3530
(lp3531
g9
ag58
ag79
ag1369
ag1375
ag3381
asS'vi'
p3532
(lp3533
I0
aI7
aI10
asS'i'
p3534
I3
sba(iclasses
Quadface
p3535
(dp3536
S'f'
p3537
(lp3538
g116
ag1901
ag172
ag648
asS'v'
p3539
(lp3540
g9
ag79
ag86
ag1919
ag1925
ag1931
asS'vi'
p3541
(lp3542
I0
aI10
aI11
asS'i'
p3543
I4
sba(iclasses
Quadface
p3544
(dp3545
S'f'
p3546
(lp3547
g578
ag592
ag606
ag2101
asS'v'
p3548
(lp3549
g44
ag86
ag37
ag2509
ag2219
ag2225
asS'vi'
p3550
(lp3551
I5
aI11
aI4
asS'i'
p3552
I5
sba(iclasses
Quadface
p3553
(dp3554
S'f'
p3555
(lp3556
g746
ag760
ag1641
ag774
asS'v'
p3557
(lp3558
g16
ag44
ag72
ag1659
ag1609
ag1615
asS'vi'
p3559
(lp3560
I1
aI5
aI9
asS'i'
p3561
I6
sba(iclasses
Quadface
p3562
(dp3563
S'f'
p3564
(lp3565
g326
ag340
ag1013
ag354
asS'v'
p3566
(lp3567
g58
ag16
ag65
ag1483
ag1489
ag3021
asS'vi'
p3568
(lp3569
I7
aI1
aI8
asS'i'
p3570
I7
sba(iclasses
Quadface
p3571
(dp3572
S'f'
p3573
(lp3574
g634
ag200
ag186
ag214
asS'v'
p3575
(lp3576
g86
ag79
ag23
ag1985
ag3279
ag1991
asS'vi'
p3577
(lp3578
I11
aI10
aI2
asS'i'
p3579
I8
sba(iclasses
Quadface
p3580
(dp3581
S'f'
p3582
(lp3583
g1211
ag1197
ag1183
ag270
asS'v'
p3584
(lp3585
g79
ag58
ag51
ag1279
ag1315
ag1285
asS'vi'
p3586
(lp3587
I10
aI7
aI6
asS'i'
p3588
I9
sba(iclasses
Quadface
p3589
(dp3590
S'f'
p3591
(lp3592
g494
ag508
ag522
ag2129
asS'v'
p3593
(lp3594
g30
ag72
ag37
ag2665
ag2147
ag2153
asS'vi'
p3595
(lp3596
I3
aI9
aI4
asS'i'
p3597
I10
sba(iclasses
Quadface
p3598
(dp3599
S'f'
p3600
(lp3601
g480
ag2059
ag2073
ag2045
asS'v'
p3602
(lp3603
g30
ag37
ag23
ag2291
ag2297
ag2327
asS'vi'
p3604
(lp3605
I3
aI4
aI2
asS'i'
p3606
I11
sba(iclasses
Quadface
p3607
(dp3608
S'f'
p3609
(lp3610
g466
ag452
ag2353
ag438
asS'v'
p3611
(lp3612
g30
ag23
ag51
ag2371
ag2377
ag2767
asS'vi'
p3613
(lp3614
I3
aI2
aI6
asS'i'
p3615
I12
sba(iclasses
Quadface
p3616
(dp3617
S'f'
p3618
(lp3619
g844
ag410
ag424
ag396
asS'v'
p3620
(lp3621
g30
ag51
ag65
ag862
ag2845
ag868
asS'vi'
p3622
(lp3623
I3
aI6
aI8
asS'i'
p3624
I13
sba(iclasses
Quadface
p3625
(dp3626
S'f'
p3627
(lp3628
g830
ag816
ag382
ag802
asS'v'
p3629
(lp3630
g30
ag65
ag72
ag899
ag935
ag905
asS'vi'
p3631
(lp3632
I3
aI8
aI9
asS'i'
p3633
I14
sba(iclasses
Quadface
p3634
(dp3635
S'f'
p3636
(lp3637
g2115
ag550
ag536
ag564
asS'v'
p3638
(lp3639
g37
ag72
ag44
ag2183
ag2587
ag2189
asS'vi'
p3640
(lp3641
I4
aI9
aI5
asS'i'
p3642
I15
sba(iclasses
Quadface
p3643
(dp3644
S'f'
p3645
(lp3646
g2031
ag2017
ag2087
ag620
asS'v'
p3647
(lp3648
g23
ag37
ag86
ag2255
ag2261
ag2431
asS'vi'
p3649
(lp3650
I2
aI4
aI11
asS'i'
p3651
I16
sba(iclasses
Quadface
p3652
(dp3653
S'f'
p3654
(lp3655
g256
ag242
ag228
ag1225
asS'v'
p3656
(lp3657
g51
ag23
ag79
ag3201
ag1243
ag1249
asS'vi'
p3658
(lp3659
I6
aI2
aI10
asS'i'
p3660
I17
sba(iclasses
Quadface
p3661
(dp3662
S'f'
p3663
(lp3664
g2895
ag298
ag284
ag312
asS'v'
p3665
(lp3666
g65
ag51
ag58
ag2913
ag3099
ag2919
asS'vi'
p3667
(lp3668
I8
aI6
aI7
asS'i'
p3669
I18
sba(iclasses
Quadface
p3670
(dp3671
S'f'
p3672
(lp3673
g788
ag985
ag368
ag999
asS'v'
p3674
(lp3675
g72
ag65
ag16
ag1555
ag1519
ag1525
asS'vi'
p3676
(lp3677
I9
aI8
aI1
asS'i'
p3678
I19
sbasS'chan'
p3679
(lp3680
g102
ag676
ag662
ag690
ag1069
ag718
ag704
ag732
ag1055
ag1041
ag1027
ag1155
ag130
ag144
ag1169
ag158
ag116
ag1901
ag172
ag648
ag578
ag592
ag606
ag2101
ag746
ag760
ag1641
ag774
ag326
ag340
ag1013
ag354
ag634
ag200
ag186
ag214
ag1211
ag1197
ag1183
ag270
ag494
ag508
ag522
ag2129
ag480
ag2059
ag2073
ag2045
ag466
ag452
ag2353
ag438
ag844
ag410
ag424
ag396
ag830
ag816
ag382
ag802
ag2115
ag550
ag536
ag564
ag2031
ag2017
ag2087
ag620
ag256
ag242
ag228
ag1225
ag2895
ag298
ag284
ag312
ag788
ag985
ag368
ag999
asb.